00000000  BD009089EC        mov ebp,0xec899000
00000005  8816              mov [esi],dl
00000007  61                popa
00000008  7DE8              jnl 0xfffffff2
0000000A  3A00              cmp al,[eax]
0000000C  E84F006862        call 0x62680060
00000011  7DBA              jnl 0xffffffcd
00000013  3412              xor al,0x12
00000015  E8580083C4        call 0xc4830072
0000001A  026886            add ch,[eax-0x7a]
0000001D  7DE8              jnl 0x7
0000001F  9B0083C402E8F2    wait add [ebx-0xd17fd3c],al
00000026  00F4              add ah,dh
00000028  0000              add [eax],al
0000002A  0000              add [eax],al
0000002C  0000              add [eax],al
0000002E  0000              add [eax],al
00000030  FF                db 0xff
00000031  FF00              inc dword [eax]
00000033  0000              add [eax],al
00000035  9ACF00FFFF0000    call 0x0:0xffff00cf
0000003C  0092CF001700      add [edx+0x1700cf],dl
00000042  287C0000          sub [eax+eax+0x0],bh
00000046  55                push ebp
00000047  89E5              mov ebp,esp
00000049  60                pusha
0000004A  B407              mov ah,0x7
0000004C  B000              mov al,0x0
0000004E  B74E              mov bh,0x4e
00000050  B90000B618        mov ecx,0x18b60000
00000055  B24F              mov dl,0x4f
00000057  CD10              int 0x10
00000059  61                popa
0000005A  89EC              mov esp,ebp
0000005C  5D                pop ebp
0000005D  C3                ret
0000005E  55                push ebp
0000005F  89E5              mov ebp,esp
00000061  60                pusha
00000062  B402              mov ah,0x2
00000064  B700              mov bh,0x0
00000066  BA0000CD10        mov edx,0x10cd0000
0000006B  61                popa
0000006C  89EC              mov esp,ebp
0000006E  5D                pop ebp
0000006F  C3                ret
00000070  55                push ebp
00000071  89E5              mov ebp,esp
00000073  60                pusha
00000074  8B7604            mov esi,[esi+0x4]
00000077  83C605            add esi,byte +0x5
0000007A  B703              mov bh,0x3
0000007C  88FB              mov bl,bh
0000007E  B104              mov cl,0x4
00000080  80FF03            cmp bh,0x3
00000083  7502              jnz 0x87
00000085  B100              mov cl,0x0
00000087  D3EA              shr edx,cl
00000089  89D0              mov eax,edx
0000008B  83E00F            and eax,byte +0xf
0000008E  83F809            cmp eax,byte +0x9
00000091  7705              ja 0x98
00000093  83C030            add eax,byte +0x30
00000096  EB03              jmp short 0x9b
00000098  83C037            add eax,byte +0x37
0000009B  88044E            mov [esi+ecx*2],al
0000009E  FECF              dec bh
000000A0  80FF00            cmp bh,0x0
000000A3  7DD7              jnl 0x7c
000000A5  B40E              mov ah,0xe
000000A7  B700              mov bh,0x0
000000A9  B300              mov bl,0x0
000000AB  4E                dec esi
000000AC  8A0446            mov al,[esi+eax*2]
000000AF  0C00              or al,0x0
000000B1  7404              jz 0xb7
000000B3  CD10              int 0x10
000000B5  EBF5              jmp short 0xac
000000B7  61                popa
000000B8  89EC              mov esp,ebp
000000BA  5D                pop ebp
000000BB  C3                ret
000000BC  55                push ebp
000000BD  89E5              mov ebp,esp
000000BF  60                pusha
000000C0  B402              mov ah,0x2
000000C2  B102              mov cl,0x2
000000C4  B00F              mov al,0xf
000000C6  B600              mov dh,0x0
000000C8  B500              mov ch,0x0
000000CA  BB00008EC3        mov ebx,0xc38e0000
000000CF  BB00108A16        mov ebx,0x168a1000
000000D4  61                popa
000000D5  7DA2              jnl 0x79
000000D7  61                popa
000000D8  7DCD              jnl 0xa7
000000DA  137208            adc esi,[edx+0x8]
000000DD  3A06              cmp al,[esi]
000000DF  61                popa
000000E0  7D75              jnl 0x157
000000E2  02EB              add ch,bl
000000E4  108B7604B40E      adc [ebx+0xeb40476],cl
000000EA  8A0446            mov al,[esi+eax*2]
000000ED  0C00              or al,0x0
000000EF  7404              jz 0xf5
000000F1  CD10              int 0x10
000000F3  EBF5              jmp short 0xea
000000F5  61                popa
000000F6  89EC              mov esp,ebp
000000F8  5D                pop ebp
000000F9  C3                ret
000000FA  55                push ebp
000000FB  89E5              mov ebp,esp
000000FD  60                pusha
000000FE  B40F              mov ah,0xf
00000100  8B5D08            mov ebx,[ebp+0x8]
00000103  8A03              mov al,[ebx]
00000105  43                inc ebx
00000106  0C00              or al,0x0
00000108  740A              jz 0x114
0000010A  8802              mov [edx],al
0000010C  886201            mov [edx+0x1],ah
0000010F  83C202            add edx,byte +0x2
00000112  EBEF              jmp short 0x103
00000114  61                popa
00000115  89EC              mov esp,ebp
00000117  5D                pop ebp
00000118  C3                ret
00000119  FA                cli
0000011A  0F0116            lgdt [esi]
0000011D  40                inc eax
0000011E  7C0F              jl 0x12f
00000120  20C0              and al,al
00000122  6683C801          or ax,byte +0x1
00000126  0F22C0            mov cr0,eax
00000129  EA2E7D080066B8    jmp 0xb866:0x87d2e
00000130  1000              adc [eax],al
00000132  8ED8              mov ds,eax
00000134  8ED0              mov ss,eax
00000136  8EC0              mov es,eax
00000138  8EE0              mov fs,eax
0000013A  8EE8              mov gs,eax
0000013C  BD00000900        mov ebp,0x90000
00000141  89EC              mov esp,ebp
00000143  E800000000        call 0x148
00000148  68697D0000        push dword 0x7d69
0000014D  BA00800B00        mov edx,0xb8000
00000152  E8A3FFFFFF        call 0xfa
00000157  83C404            add esp,byte +0x4
0000015A  E8A192FFFF        call 0xffff9400
0000015F  FA                cli
00000160  F4                hlt
00000161  006F78            add [edi+0x78],ch
00000164  3030              xor [eax],dh
00000166  3030              xor [eax],dh
00000168  004E6F            add [esi+0x6f],cl
0000016B  7720              ja 0x18d
0000016D  696E2033322062    imul ebp,[esi+0x20],dword 0x62203233
00000174  69742070726F7465  imul esi,[eax+0x70],dword 0x65746f72
0000017C  63746564          arpl [ebp+0x64],si
00000180  206D6F            and [ebp+0x6f],ch
00000183  6465004572        add [gs:ebp+0x72],al
00000188  726F              jc 0x1f9
0000018A  7220              jc 0x1ac
0000018C  52                push edx
0000018D  6561              gs popa
0000018F  64696E67204B6572  imul ebp,[fs:esi+0x67],dword 0x72654b20
00000197  6E                outsb
00000198  656C              gs insb
0000019A  0000              add [eax],al
0000019C  0000              add [eax],al
0000019E  0000              add [eax],al
000001A0  0000              add [eax],al
000001A2  0000              add [eax],al
000001A4  0000              add [eax],al
000001A6  0000              add [eax],al
000001A8  0000              add [eax],al
000001AA  0000              add [eax],al
000001AC  0000              add [eax],al
000001AE  0000              add [eax],al
000001B0  0000              add [eax],al
000001B2  0000              add [eax],al
000001B4  0000              add [eax],al
000001B6  0000              add [eax],al
000001B8  0000              add [eax],al
000001BA  0000              add [eax],al
000001BC  0000              add [eax],al
000001BE  0000              add [eax],al
000001C0  0000              add [eax],al
000001C2  0000              add [eax],al
000001C4  0000              add [eax],al
000001C6  0000              add [eax],al
000001C8  0000              add [eax],al
000001CA  0000              add [eax],al
000001CC  0000              add [eax],al
000001CE  0000              add [eax],al
000001D0  0000              add [eax],al
000001D2  0000              add [eax],al
000001D4  0000              add [eax],al
000001D6  0000              add [eax],al
000001D8  0000              add [eax],al
000001DA  0000              add [eax],al
000001DC  0000              add [eax],al
000001DE  0000              add [eax],al
000001E0  0000              add [eax],al
000001E2  0000              add [eax],al
000001E4  0000              add [eax],al
000001E6  0000              add [eax],al
000001E8  0000              add [eax],al
000001EA  0000              add [eax],al
000001EC  0000              add [eax],al
000001EE  0000              add [eax],al
000001F0  0000              add [eax],al
000001F2  0000              add [eax],al
000001F4  0000              add [eax],al
000001F6  0000              add [eax],al
000001F8  0000              add [eax],al
000001FA  0000              add [eax],al
000001FC  0000              add [eax],al
000001FE  55                push ebp
000001FF  AA                stosb
00000200  7F45              jg 0x247
00000202  4C                dec esp
00000203  46                inc esi
00000204  0101              add [ecx],eax
00000206  0100              add [eax],eax
00000208  0000              add [eax],al
0000020A  0000              add [eax],al
0000020C  0000              add [eax],al
0000020E  0000              add [eax],al
00000210  0200              add al,[eax]
00000212  0300              add eax,[eax]
00000214  0100              add [eax],eax
00000216  0000              add [eax],al
00000218  0010              add [eax],dl
0000021A  0000              add [eax],al
0000021C  3400              xor al,0x0
0000021E  0000              add [eax],al
00000220  C42D00000000      les ebp,[dword 0x0]
00000226  0000              add [eax],al
00000228  3400              xor al,0x0
0000022A  2000              and [eax],al
0000022C  0300              add eax,[eax]
0000022E  2800              sub [eax],al
00000230  0900              or [eax],eax
00000232  0800              or [eax],al
00000234  0100              add [eax],eax
00000236  0000              add [eax],al
00000238  0010              add [eax],dl
0000023A  0000              add [eax],al
0000023C  0010              add [eax],dl
0000023E  0000              add [eax],al
00000240  0010              add [eax],dl
00000242  0000              add [eax],al
00000244  8C1500008C15      mov [dword 0x158c0000],ss
0000024A  0000              add [eax],al
0000024C  0500000000        add eax,0x0
00000251  1000              adc [eax],al
00000253  0001              add [ecx],al
00000255  0000              add [eax],al
00000257  0000              add [eax],al
00000259  3000              xor [eax],al
0000025B  0000              add [eax],al
0000025D  40                inc eax
0000025E  0000              add [eax],al
00000260  004000            add [eax+0x0],al
00000263  0000              add [eax],al
00000265  0000              add [eax],al
00000267  002C08            add [eax+ecx],ch
0000026A  0000              add [eax],al
0000026C  06                push es
0000026D  0000              add [eax],al
0000026F  0000              add [eax],al
00000271  1000              adc [eax],al
00000273  0051E5            add [ecx-0x1b],dl
00000276  7464              jz 0x2dc
00000278  0000              add [eax],al
0000027A  0000              add [eax],al
0000027C  0000              add [eax],al
0000027E  0000              add [eax],al
00000280  0000              add [eax],al
00000282  0000              add [eax],al
00000284  0000              add [eax],al
00000286  0000              add [eax],al
00000288  0000              add [eax],al
0000028A  0000              add [eax],al
0000028C  07                pop es
0000028D  0000              add [eax],al
0000028F  0010              add [eax],dl
00000291  0000              add [eax],al
00000293  0000              add [eax],al
00000295  0000              add [eax],al
00000297  0000              add [eax],al
00000299  0000              add [eax],al
0000029B  0000              add [eax],al
0000029D  0000              add [eax],al
0000029F  0000              add [eax],al
000002A1  0000              add [eax],al
000002A3  0000              add [eax],al
000002A5  0000              add [eax],al
000002A7  0000              add [eax],al
000002A9  0000              add [eax],al
000002AB  0000              add [eax],al
000002AD  0000              add [eax],al
000002AF  0000              add [eax],al
000002B1  0000              add [eax],al
000002B3  0000              add [eax],al
000002B5  0000              add [eax],al
000002B7  0000              add [eax],al
000002B9  0000              add [eax],al
000002BB  0000              add [eax],al
000002BD  0000              add [eax],al
000002BF  0000              add [eax],al
000002C1  0000              add [eax],al
000002C3  0000              add [eax],al
000002C5  0000              add [eax],al
000002C7  0000              add [eax],al
000002C9  0000              add [eax],al
000002CB  0000              add [eax],al
000002CD  0000              add [eax],al
000002CF  0000              add [eax],al
000002D1  0000              add [eax],al
000002D3  0000              add [eax],al
000002D5  0000              add [eax],al
000002D7  0000              add [eax],al
000002D9  0000              add [eax],al
000002DB  0000              add [eax],al
000002DD  0000              add [eax],al
000002DF  0000              add [eax],al
000002E1  0000              add [eax],al
000002E3  0000              add [eax],al
000002E5  0000              add [eax],al
000002E7  0000              add [eax],al
000002E9  0000              add [eax],al
000002EB  0000              add [eax],al
000002ED  0000              add [eax],al
000002EF  0000              add [eax],al
000002F1  0000              add [eax],al
000002F3  0000              add [eax],al
000002F5  0000              add [eax],al
000002F7  0000              add [eax],al
000002F9  0000              add [eax],al
000002FB  0000              add [eax],al
000002FD  0000              add [eax],al
000002FF  0000              add [eax],al
00000301  0000              add [eax],al
00000303  0000              add [eax],al
00000305  0000              add [eax],al
00000307  0000              add [eax],al
00000309  0000              add [eax],al
0000030B  0000              add [eax],al
0000030D  0000              add [eax],al
0000030F  0000              add [eax],al
00000311  0000              add [eax],al
00000313  0000              add [eax],al
00000315  0000              add [eax],al
00000317  0000              add [eax],al
00000319  0000              add [eax],al
0000031B  0000              add [eax],al
0000031D  0000              add [eax],al
0000031F  0000              add [eax],al
00000321  0000              add [eax],al
00000323  0000              add [eax],al
00000325  0000              add [eax],al
00000327  0000              add [eax],al
00000329  0000              add [eax],al
0000032B  0000              add [eax],al
0000032D  0000              add [eax],al
0000032F  0000              add [eax],al
00000331  0000              add [eax],al
00000333  0000              add [eax],al
00000335  0000              add [eax],al
00000337  0000              add [eax],al
00000339  0000              add [eax],al
0000033B  0000              add [eax],al
0000033D  0000              add [eax],al
0000033F  0000              add [eax],al
00000341  0000              add [eax],al
00000343  0000              add [eax],al
00000345  0000              add [eax],al
00000347  0000              add [eax],al
00000349  0000              add [eax],al
0000034B  0000              add [eax],al
0000034D  0000              add [eax],al
0000034F  0000              add [eax],al
00000351  0000              add [eax],al
00000353  0000              add [eax],al
00000355  0000              add [eax],al
00000357  0000              add [eax],al
00000359  0000              add [eax],al
0000035B  0000              add [eax],al
0000035D  0000              add [eax],al
0000035F  0000              add [eax],al
00000361  0000              add [eax],al
00000363  0000              add [eax],al
00000365  0000              add [eax],al
00000367  0000              add [eax],al
00000369  0000              add [eax],al
0000036B  0000              add [eax],al
0000036D  0000              add [eax],al
0000036F  0000              add [eax],al
00000371  0000              add [eax],al
00000373  0000              add [eax],al
00000375  0000              add [eax],al
00000377  0000              add [eax],al
00000379  0000              add [eax],al
0000037B  0000              add [eax],al
0000037D  0000              add [eax],al
0000037F  0000              add [eax],al
00000381  0000              add [eax],al
00000383  0000              add [eax],al
00000385  0000              add [eax],al
00000387  0000              add [eax],al
00000389  0000              add [eax],al
0000038B  0000              add [eax],al
0000038D  0000              add [eax],al
0000038F  0000              add [eax],al
00000391  0000              add [eax],al
00000393  0000              add [eax],al
00000395  0000              add [eax],al
00000397  0000              add [eax],al
00000399  0000              add [eax],al
0000039B  0000              add [eax],al
0000039D  0000              add [eax],al
0000039F  0000              add [eax],al
000003A1  0000              add [eax],al
000003A3  0000              add [eax],al
000003A5  0000              add [eax],al
000003A7  0000              add [eax],al
000003A9  0000              add [eax],al
000003AB  0000              add [eax],al
000003AD  0000              add [eax],al
000003AF  0000              add [eax],al
000003B1  0000              add [eax],al
000003B3  0000              add [eax],al
000003B5  0000              add [eax],al
000003B7  0000              add [eax],al
000003B9  0000              add [eax],al
000003BB  0000              add [eax],al
000003BD  0000              add [eax],al
000003BF  0000              add [eax],al
000003C1  0000              add [eax],al
000003C3  0000              add [eax],al
000003C5  0000              add [eax],al
000003C7  0000              add [eax],al
000003C9  0000              add [eax],al
000003CB  0000              add [eax],al
000003CD  0000              add [eax],al
000003CF  0000              add [eax],al
000003D1  0000              add [eax],al
000003D3  0000              add [eax],al
000003D5  0000              add [eax],al
000003D7  0000              add [eax],al
000003D9  0000              add [eax],al
000003DB  0000              add [eax],al
000003DD  0000              add [eax],al
000003DF  0000              add [eax],al
000003E1  0000              add [eax],al
000003E3  0000              add [eax],al
000003E5  0000              add [eax],al
000003E7  0000              add [eax],al
000003E9  0000              add [eax],al
000003EB  0000              add [eax],al
000003ED  0000              add [eax],al
000003EF  0000              add [eax],al
000003F1  0000              add [eax],al
000003F3  0000              add [eax],al
000003F5  0000              add [eax],al
000003F7  0000              add [eax],al
000003F9  0000              add [eax],al
000003FB  0000              add [eax],al
000003FD  0000              add [eax],al
000003FF  0000              add [eax],al
00000401  0000              add [eax],al
00000403  0000              add [eax],al
00000405  0000              add [eax],al
00000407  0000              add [eax],al
00000409  0000              add [eax],al
0000040B  0000              add [eax],al
0000040D  0000              add [eax],al
0000040F  0000              add [eax],al
00000411  0000              add [eax],al
00000413  0000              add [eax],al
00000415  0000              add [eax],al
00000417  0000              add [eax],al
00000419  0000              add [eax],al
0000041B  0000              add [eax],al
0000041D  0000              add [eax],al
0000041F  0000              add [eax],al
00000421  0000              add [eax],al
00000423  0000              add [eax],al
00000425  0000              add [eax],al
00000427  0000              add [eax],al
00000429  0000              add [eax],al
0000042B  0000              add [eax],al
0000042D  0000              add [eax],al
0000042F  0000              add [eax],al
00000431  0000              add [eax],al
00000433  0000              add [eax],al
00000435  0000              add [eax],al
00000437  0000              add [eax],al
00000439  0000              add [eax],al
0000043B  0000              add [eax],al
0000043D  0000              add [eax],al
0000043F  0000              add [eax],al
00000441  0000              add [eax],al
00000443  0000              add [eax],al
00000445  0000              add [eax],al
00000447  0000              add [eax],al
00000449  0000              add [eax],al
0000044B  0000              add [eax],al
0000044D  0000              add [eax],al
0000044F  0000              add [eax],al
00000451  0000              add [eax],al
00000453  0000              add [eax],al
00000455  0000              add [eax],al
00000457  0000              add [eax],al
00000459  0000              add [eax],al
0000045B  0000              add [eax],al
0000045D  0000              add [eax],al
0000045F  0000              add [eax],al
00000461  0000              add [eax],al
00000463  0000              add [eax],al
00000465  0000              add [eax],al
00000467  0000              add [eax],al
00000469  0000              add [eax],al
0000046B  0000              add [eax],al
0000046D  0000              add [eax],al
0000046F  0000              add [eax],al
00000471  0000              add [eax],al
00000473  0000              add [eax],al
00000475  0000              add [eax],al
00000477  0000              add [eax],al
00000479  0000              add [eax],al
0000047B  0000              add [eax],al
0000047D  0000              add [eax],al
0000047F  0000              add [eax],al
00000481  0000              add [eax],al
00000483  0000              add [eax],al
00000485  0000              add [eax],al
00000487  0000              add [eax],al
00000489  0000              add [eax],al
0000048B  0000              add [eax],al
0000048D  0000              add [eax],al
0000048F  0000              add [eax],al
00000491  0000              add [eax],al
00000493  0000              add [eax],al
00000495  0000              add [eax],al
00000497  0000              add [eax],al
00000499  0000              add [eax],al
0000049B  0000              add [eax],al
0000049D  0000              add [eax],al
0000049F  0000              add [eax],al
000004A1  0000              add [eax],al
000004A3  0000              add [eax],al
000004A5  0000              add [eax],al
000004A7  0000              add [eax],al
000004A9  0000              add [eax],al
000004AB  0000              add [eax],al
000004AD  0000              add [eax],al
000004AF  0000              add [eax],al
000004B1  0000              add [eax],al
000004B3  0000              add [eax],al
000004B5  0000              add [eax],al
000004B7  0000              add [eax],al
000004B9  0000              add [eax],al
000004BB  0000              add [eax],al
000004BD  0000              add [eax],al
000004BF  0000              add [eax],al
000004C1  0000              add [eax],al
000004C3  0000              add [eax],al
000004C5  0000              add [eax],al
000004C7  0000              add [eax],al
000004C9  0000              add [eax],al
000004CB  0000              add [eax],al
000004CD  0000              add [eax],al
000004CF  0000              add [eax],al
000004D1  0000              add [eax],al
000004D3  0000              add [eax],al
000004D5  0000              add [eax],al
000004D7  0000              add [eax],al
000004D9  0000              add [eax],al
000004DB  0000              add [eax],al
000004DD  0000              add [eax],al
000004DF  0000              add [eax],al
000004E1  0000              add [eax],al
000004E3  0000              add [eax],al
000004E5  0000              add [eax],al
000004E7  0000              add [eax],al
000004E9  0000              add [eax],al
000004EB  0000              add [eax],al
000004ED  0000              add [eax],al
000004EF  0000              add [eax],al
000004F1  0000              add [eax],al
000004F3  0000              add [eax],al
000004F5  0000              add [eax],al
000004F7  0000              add [eax],al
000004F9  0000              add [eax],al
000004FB  0000              add [eax],al
000004FD  0000              add [eax],al
000004FF  0000              add [eax],al
00000501  0000              add [eax],al
00000503  0000              add [eax],al
00000505  0000              add [eax],al
00000507  0000              add [eax],al
00000509  0000              add [eax],al
0000050B  0000              add [eax],al
0000050D  0000              add [eax],al
0000050F  0000              add [eax],al
00000511  0000              add [eax],al
00000513  0000              add [eax],al
00000515  0000              add [eax],al
00000517  0000              add [eax],al
00000519  0000              add [eax],al
0000051B  0000              add [eax],al
0000051D  0000              add [eax],al
0000051F  0000              add [eax],al
00000521  0000              add [eax],al
00000523  0000              add [eax],al
00000525  0000              add [eax],al
00000527  0000              add [eax],al
00000529  0000              add [eax],al
0000052B  0000              add [eax],al
0000052D  0000              add [eax],al
0000052F  0000              add [eax],al
00000531  0000              add [eax],al
00000533  0000              add [eax],al
00000535  0000              add [eax],al
00000537  0000              add [eax],al
00000539  0000              add [eax],al
0000053B  0000              add [eax],al
0000053D  0000              add [eax],al
0000053F  0000              add [eax],al
00000541  0000              add [eax],al
00000543  0000              add [eax],al
00000545  0000              add [eax],al
00000547  0000              add [eax],al
00000549  0000              add [eax],al
0000054B  0000              add [eax],al
0000054D  0000              add [eax],al
0000054F  0000              add [eax],al
00000551  0000              add [eax],al
00000553  0000              add [eax],al
00000555  0000              add [eax],al
00000557  0000              add [eax],al
00000559  0000              add [eax],al
0000055B  0000              add [eax],al
0000055D  0000              add [eax],al
0000055F  0000              add [eax],al
00000561  0000              add [eax],al
00000563  0000              add [eax],al
00000565  0000              add [eax],al
00000567  0000              add [eax],al
00000569  0000              add [eax],al
0000056B  0000              add [eax],al
0000056D  0000              add [eax],al
0000056F  0000              add [eax],al
00000571  0000              add [eax],al
00000573  0000              add [eax],al
00000575  0000              add [eax],al
00000577  0000              add [eax],al
00000579  0000              add [eax],al
0000057B  0000              add [eax],al
0000057D  0000              add [eax],al
0000057F  0000              add [eax],al
00000581  0000              add [eax],al
00000583  0000              add [eax],al
00000585  0000              add [eax],al
00000587  0000              add [eax],al
00000589  0000              add [eax],al
0000058B  0000              add [eax],al
0000058D  0000              add [eax],al
0000058F  0000              add [eax],al
00000591  0000              add [eax],al
00000593  0000              add [eax],al
00000595  0000              add [eax],al
00000597  0000              add [eax],al
00000599  0000              add [eax],al
0000059B  0000              add [eax],al
0000059D  0000              add [eax],al
0000059F  0000              add [eax],al
000005A1  0000              add [eax],al
000005A3  0000              add [eax],al
000005A5  0000              add [eax],al
000005A7  0000              add [eax],al
000005A9  0000              add [eax],al
000005AB  0000              add [eax],al
000005AD  0000              add [eax],al
000005AF  0000              add [eax],al
000005B1  0000              add [eax],al
000005B3  0000              add [eax],al
000005B5  0000              add [eax],al
000005B7  0000              add [eax],al
000005B9  0000              add [eax],al
000005BB  0000              add [eax],al
000005BD  0000              add [eax],al
000005BF  0000              add [eax],al
000005C1  0000              add [eax],al
000005C3  0000              add [eax],al
000005C5  0000              add [eax],al
000005C7  0000              add [eax],al
000005C9  0000              add [eax],al
000005CB  0000              add [eax],al
000005CD  0000              add [eax],al
000005CF  0000              add [eax],al
000005D1  0000              add [eax],al
000005D3  0000              add [eax],al
000005D5  0000              add [eax],al
000005D7  0000              add [eax],al
000005D9  0000              add [eax],al
000005DB  0000              add [eax],al
000005DD  0000              add [eax],al
000005DF  0000              add [eax],al
000005E1  0000              add [eax],al
000005E3  0000              add [eax],al
000005E5  0000              add [eax],al
000005E7  0000              add [eax],al
000005E9  0000              add [eax],al
000005EB  0000              add [eax],al
000005ED  0000              add [eax],al
000005EF  0000              add [eax],al
000005F1  0000              add [eax],al
000005F3  0000              add [eax],al
000005F5  0000              add [eax],al
000005F7  0000              add [eax],al
000005F9  0000              add [eax],al
000005FB  0000              add [eax],al
000005FD  0000              add [eax],al
000005FF  0000              add [eax],al
00000601  0000              add [eax],al
00000603  0000              add [eax],al
00000605  0000              add [eax],al
00000607  0000              add [eax],al
00000609  0000              add [eax],al
0000060B  0000              add [eax],al
0000060D  0000              add [eax],al
0000060F  0000              add [eax],al
00000611  0000              add [eax],al
00000613  0000              add [eax],al
00000615  0000              add [eax],al
00000617  0000              add [eax],al
00000619  0000              add [eax],al
0000061B  0000              add [eax],al
0000061D  0000              add [eax],al
0000061F  0000              add [eax],al
00000621  0000              add [eax],al
00000623  0000              add [eax],al
00000625  0000              add [eax],al
00000627  0000              add [eax],al
00000629  0000              add [eax],al
0000062B  0000              add [eax],al
0000062D  0000              add [eax],al
0000062F  0000              add [eax],al
00000631  0000              add [eax],al
00000633  0000              add [eax],al
00000635  0000              add [eax],al
00000637  0000              add [eax],al
00000639  0000              add [eax],al
0000063B  0000              add [eax],al
0000063D  0000              add [eax],al
0000063F  0000              add [eax],al
00000641  0000              add [eax],al
00000643  0000              add [eax],al
00000645  0000              add [eax],al
00000647  0000              add [eax],al
00000649  0000              add [eax],al
0000064B  0000              add [eax],al
0000064D  0000              add [eax],al
0000064F  0000              add [eax],al
00000651  0000              add [eax],al
00000653  0000              add [eax],al
00000655  0000              add [eax],al
00000657  0000              add [eax],al
00000659  0000              add [eax],al
0000065B  0000              add [eax],al
0000065D  0000              add [eax],al
0000065F  0000              add [eax],al
00000661  0000              add [eax],al
00000663  0000              add [eax],al
00000665  0000              add [eax],al
00000667  0000              add [eax],al
00000669  0000              add [eax],al
0000066B  0000              add [eax],al
0000066D  0000              add [eax],al
0000066F  0000              add [eax],al
00000671  0000              add [eax],al
00000673  0000              add [eax],al
00000675  0000              add [eax],al
00000677  0000              add [eax],al
00000679  0000              add [eax],al
0000067B  0000              add [eax],al
0000067D  0000              add [eax],al
0000067F  0000              add [eax],al
00000681  0000              add [eax],al
00000683  0000              add [eax],al
00000685  0000              add [eax],al
00000687  0000              add [eax],al
00000689  0000              add [eax],al
0000068B  0000              add [eax],al
0000068D  0000              add [eax],al
0000068F  0000              add [eax],al
00000691  0000              add [eax],al
00000693  0000              add [eax],al
00000695  0000              add [eax],al
00000697  0000              add [eax],al
00000699  0000              add [eax],al
0000069B  0000              add [eax],al
0000069D  0000              add [eax],al
0000069F  0000              add [eax],al
000006A1  0000              add [eax],al
000006A3  0000              add [eax],al
000006A5  0000              add [eax],al
000006A7  0000              add [eax],al
000006A9  0000              add [eax],al
000006AB  0000              add [eax],al
000006AD  0000              add [eax],al
000006AF  0000              add [eax],al
000006B1  0000              add [eax],al
000006B3  0000              add [eax],al
000006B5  0000              add [eax],al
000006B7  0000              add [eax],al
000006B9  0000              add [eax],al
000006BB  0000              add [eax],al
000006BD  0000              add [eax],al
000006BF  0000              add [eax],al
000006C1  0000              add [eax],al
000006C3  0000              add [eax],al
000006C5  0000              add [eax],al
000006C7  0000              add [eax],al
000006C9  0000              add [eax],al
000006CB  0000              add [eax],al
000006CD  0000              add [eax],al
000006CF  0000              add [eax],al
000006D1  0000              add [eax],al
000006D3  0000              add [eax],al
000006D5  0000              add [eax],al
000006D7  0000              add [eax],al
000006D9  0000              add [eax],al
000006DB  0000              add [eax],al
000006DD  0000              add [eax],al
000006DF  0000              add [eax],al
000006E1  0000              add [eax],al
000006E3  0000              add [eax],al
000006E5  0000              add [eax],al
000006E7  0000              add [eax],al
000006E9  0000              add [eax],al
000006EB  0000              add [eax],al
000006ED  0000              add [eax],al
000006EF  0000              add [eax],al
000006F1  0000              add [eax],al
000006F3  0000              add [eax],al
000006F5  0000              add [eax],al
000006F7  0000              add [eax],al
000006F9  0000              add [eax],al
000006FB  0000              add [eax],al
000006FD  0000              add [eax],al
000006FF  0000              add [eax],al
00000701  0000              add [eax],al
00000703  0000              add [eax],al
00000705  0000              add [eax],al
00000707  0000              add [eax],al
00000709  0000              add [eax],al
0000070B  0000              add [eax],al
0000070D  0000              add [eax],al
0000070F  0000              add [eax],al
00000711  0000              add [eax],al
00000713  0000              add [eax],al
00000715  0000              add [eax],al
00000717  0000              add [eax],al
00000719  0000              add [eax],al
0000071B  0000              add [eax],al
0000071D  0000              add [eax],al
0000071F  0000              add [eax],al
00000721  0000              add [eax],al
00000723  0000              add [eax],al
00000725  0000              add [eax],al
00000727  0000              add [eax],al
00000729  0000              add [eax],al
0000072B  0000              add [eax],al
0000072D  0000              add [eax],al
0000072F  0000              add [eax],al
00000731  0000              add [eax],al
00000733  0000              add [eax],al
00000735  0000              add [eax],al
00000737  0000              add [eax],al
00000739  0000              add [eax],al
0000073B  0000              add [eax],al
0000073D  0000              add [eax],al
0000073F  0000              add [eax],al
00000741  0000              add [eax],al
00000743  0000              add [eax],al
00000745  0000              add [eax],al
00000747  0000              add [eax],al
00000749  0000              add [eax],al
0000074B  0000              add [eax],al
0000074D  0000              add [eax],al
0000074F  0000              add [eax],al
00000751  0000              add [eax],al
00000753  0000              add [eax],al
00000755  0000              add [eax],al
00000757  0000              add [eax],al
00000759  0000              add [eax],al
0000075B  0000              add [eax],al
0000075D  0000              add [eax],al
0000075F  0000              add [eax],al
00000761  0000              add [eax],al
00000763  0000              add [eax],al
00000765  0000              add [eax],al
00000767  0000              add [eax],al
00000769  0000              add [eax],al
0000076B  0000              add [eax],al
0000076D  0000              add [eax],al
0000076F  0000              add [eax],al
00000771  0000              add [eax],al
00000773  0000              add [eax],al
00000775  0000              add [eax],al
00000777  0000              add [eax],al
00000779  0000              add [eax],al
0000077B  0000              add [eax],al
0000077D  0000              add [eax],al
0000077F  0000              add [eax],al
00000781  0000              add [eax],al
00000783  0000              add [eax],al
00000785  0000              add [eax],al
00000787  0000              add [eax],al
00000789  0000              add [eax],al
0000078B  0000              add [eax],al
0000078D  0000              add [eax],al
0000078F  0000              add [eax],al
00000791  0000              add [eax],al
00000793  0000              add [eax],al
00000795  0000              add [eax],al
00000797  0000              add [eax],al
00000799  0000              add [eax],al
0000079B  0000              add [eax],al
0000079D  0000              add [eax],al
0000079F  0000              add [eax],al
000007A1  0000              add [eax],al
000007A3  0000              add [eax],al
000007A5  0000              add [eax],al
000007A7  0000              add [eax],al
000007A9  0000              add [eax],al
000007AB  0000              add [eax],al
000007AD  0000              add [eax],al
000007AF  0000              add [eax],al
000007B1  0000              add [eax],al
000007B3  0000              add [eax],al
000007B5  0000              add [eax],al
000007B7  0000              add [eax],al
000007B9  0000              add [eax],al
000007BB  0000              add [eax],al
000007BD  0000              add [eax],al
000007BF  0000              add [eax],al
000007C1  0000              add [eax],al
000007C3  0000              add [eax],al
000007C5  0000              add [eax],al
000007C7  0000              add [eax],al
000007C9  0000              add [eax],al
000007CB  0000              add [eax],al
000007CD  0000              add [eax],al
000007CF  0000              add [eax],al
000007D1  0000              add [eax],al
000007D3  0000              add [eax],al
000007D5  0000              add [eax],al
000007D7  0000              add [eax],al
000007D9  0000              add [eax],al
000007DB  0000              add [eax],al
000007DD  0000              add [eax],al
000007DF  0000              add [eax],al
000007E1  0000              add [eax],al
000007E3  0000              add [eax],al
000007E5  0000              add [eax],al
000007E7  0000              add [eax],al
000007E9  0000              add [eax],al
000007EB  0000              add [eax],al
000007ED  0000              add [eax],al
000007EF  0000              add [eax],al
000007F1  0000              add [eax],al
000007F3  0000              add [eax],al
000007F5  0000              add [eax],al
000007F7  0000              add [eax],al
000007F9  0000              add [eax],al
000007FB  0000              add [eax],al
000007FD  0000              add [eax],al
000007FF  0000              add [eax],al
00000801  0000              add [eax],al
00000803  0000              add [eax],al
00000805  0000              add [eax],al
00000807  0000              add [eax],al
00000809  0000              add [eax],al
0000080B  0000              add [eax],al
0000080D  0000              add [eax],al
0000080F  0000              add [eax],al
00000811  0000              add [eax],al
00000813  0000              add [eax],al
00000815  0000              add [eax],al
00000817  0000              add [eax],al
00000819  0000              add [eax],al
0000081B  0000              add [eax],al
0000081D  0000              add [eax],al
0000081F  0000              add [eax],al
00000821  0000              add [eax],al
00000823  0000              add [eax],al
00000825  0000              add [eax],al
00000827  0000              add [eax],al
00000829  0000              add [eax],al
0000082B  0000              add [eax],al
0000082D  0000              add [eax],al
0000082F  0000              add [eax],al
00000831  0000              add [eax],al
00000833  0000              add [eax],al
00000835  0000              add [eax],al
00000837  0000              add [eax],al
00000839  0000              add [eax],al
0000083B  0000              add [eax],al
0000083D  0000              add [eax],al
0000083F  0000              add [eax],al
00000841  0000              add [eax],al
00000843  0000              add [eax],al
00000845  0000              add [eax],al
00000847  0000              add [eax],al
00000849  0000              add [eax],al
0000084B  0000              add [eax],al
0000084D  0000              add [eax],al
0000084F  0000              add [eax],al
00000851  0000              add [eax],al
00000853  0000              add [eax],al
00000855  0000              add [eax],al
00000857  0000              add [eax],al
00000859  0000              add [eax],al
0000085B  0000              add [eax],al
0000085D  0000              add [eax],al
0000085F  0000              add [eax],al
00000861  0000              add [eax],al
00000863  0000              add [eax],al
00000865  0000              add [eax],al
00000867  0000              add [eax],al
00000869  0000              add [eax],al
0000086B  0000              add [eax],al
0000086D  0000              add [eax],al
0000086F  0000              add [eax],al
00000871  0000              add [eax],al
00000873  0000              add [eax],al
00000875  0000              add [eax],al
00000877  0000              add [eax],al
00000879  0000              add [eax],al
0000087B  0000              add [eax],al
0000087D  0000              add [eax],al
0000087F  0000              add [eax],al
00000881  0000              add [eax],al
00000883  0000              add [eax],al
00000885  0000              add [eax],al
00000887  0000              add [eax],al
00000889  0000              add [eax],al
0000088B  0000              add [eax],al
0000088D  0000              add [eax],al
0000088F  0000              add [eax],al
00000891  0000              add [eax],al
00000893  0000              add [eax],al
00000895  0000              add [eax],al
00000897  0000              add [eax],al
00000899  0000              add [eax],al
0000089B  0000              add [eax],al
0000089D  0000              add [eax],al
0000089F  0000              add [eax],al
000008A1  0000              add [eax],al
000008A3  0000              add [eax],al
000008A5  0000              add [eax],al
000008A7  0000              add [eax],al
000008A9  0000              add [eax],al
000008AB  0000              add [eax],al
000008AD  0000              add [eax],al
000008AF  0000              add [eax],al
000008B1  0000              add [eax],al
000008B3  0000              add [eax],al
000008B5  0000              add [eax],al
000008B7  0000              add [eax],al
000008B9  0000              add [eax],al
000008BB  0000              add [eax],al
000008BD  0000              add [eax],al
000008BF  0000              add [eax],al
000008C1  0000              add [eax],al
000008C3  0000              add [eax],al
000008C5  0000              add [eax],al
000008C7  0000              add [eax],al
000008C9  0000              add [eax],al
000008CB  0000              add [eax],al
000008CD  0000              add [eax],al
000008CF  0000              add [eax],al
000008D1  0000              add [eax],al
000008D3  0000              add [eax],al
000008D5  0000              add [eax],al
000008D7  0000              add [eax],al
000008D9  0000              add [eax],al
000008DB  0000              add [eax],al
000008DD  0000              add [eax],al
000008DF  0000              add [eax],al
000008E1  0000              add [eax],al
000008E3  0000              add [eax],al
000008E5  0000              add [eax],al
000008E7  0000              add [eax],al
000008E9  0000              add [eax],al
000008EB  0000              add [eax],al
000008ED  0000              add [eax],al
000008EF  0000              add [eax],al
000008F1  0000              add [eax],al
000008F3  0000              add [eax],al
000008F5  0000              add [eax],al
000008F7  0000              add [eax],al
000008F9  0000              add [eax],al
000008FB  0000              add [eax],al
000008FD  0000              add [eax],al
000008FF  0000              add [eax],al
00000901  0000              add [eax],al
00000903  0000              add [eax],al
00000905  0000              add [eax],al
00000907  0000              add [eax],al
00000909  0000              add [eax],al
0000090B  0000              add [eax],al
0000090D  0000              add [eax],al
0000090F  0000              add [eax],al
00000911  0000              add [eax],al
00000913  0000              add [eax],al
00000915  0000              add [eax],al
00000917  0000              add [eax],al
00000919  0000              add [eax],al
0000091B  0000              add [eax],al
0000091D  0000              add [eax],al
0000091F  0000              add [eax],al
00000921  0000              add [eax],al
00000923  0000              add [eax],al
00000925  0000              add [eax],al
00000927  0000              add [eax],al
00000929  0000              add [eax],al
0000092B  0000              add [eax],al
0000092D  0000              add [eax],al
0000092F  0000              add [eax],al
00000931  0000              add [eax],al
00000933  0000              add [eax],al
00000935  0000              add [eax],al
00000937  0000              add [eax],al
00000939  0000              add [eax],al
0000093B  0000              add [eax],al
0000093D  0000              add [eax],al
0000093F  0000              add [eax],al
00000941  0000              add [eax],al
00000943  0000              add [eax],al
00000945  0000              add [eax],al
00000947  0000              add [eax],al
00000949  0000              add [eax],al
0000094B  0000              add [eax],al
0000094D  0000              add [eax],al
0000094F  0000              add [eax],al
00000951  0000              add [eax],al
00000953  0000              add [eax],al
00000955  0000              add [eax],al
00000957  0000              add [eax],al
00000959  0000              add [eax],al
0000095B  0000              add [eax],al
0000095D  0000              add [eax],al
0000095F  0000              add [eax],al
00000961  0000              add [eax],al
00000963  0000              add [eax],al
00000965  0000              add [eax],al
00000967  0000              add [eax],al
00000969  0000              add [eax],al
0000096B  0000              add [eax],al
0000096D  0000              add [eax],al
0000096F  0000              add [eax],al
00000971  0000              add [eax],al
00000973  0000              add [eax],al
00000975  0000              add [eax],al
00000977  0000              add [eax],al
00000979  0000              add [eax],al
0000097B  0000              add [eax],al
0000097D  0000              add [eax],al
0000097F  0000              add [eax],al
00000981  0000              add [eax],al
00000983  0000              add [eax],al
00000985  0000              add [eax],al
00000987  0000              add [eax],al
00000989  0000              add [eax],al
0000098B  0000              add [eax],al
0000098D  0000              add [eax],al
0000098F  0000              add [eax],al
00000991  0000              add [eax],al
00000993  0000              add [eax],al
00000995  0000              add [eax],al
00000997  0000              add [eax],al
00000999  0000              add [eax],al
0000099B  0000              add [eax],al
0000099D  0000              add [eax],al
0000099F  0000              add [eax],al
000009A1  0000              add [eax],al
000009A3  0000              add [eax],al
000009A5  0000              add [eax],al
000009A7  0000              add [eax],al
000009A9  0000              add [eax],al
000009AB  0000              add [eax],al
000009AD  0000              add [eax],al
000009AF  0000              add [eax],al
000009B1  0000              add [eax],al
000009B3  0000              add [eax],al
000009B5  0000              add [eax],al
000009B7  0000              add [eax],al
000009B9  0000              add [eax],al
000009BB  0000              add [eax],al
000009BD  0000              add [eax],al
000009BF  0000              add [eax],al
000009C1  0000              add [eax],al
000009C3  0000              add [eax],al
000009C5  0000              add [eax],al
000009C7  0000              add [eax],al
000009C9  0000              add [eax],al
000009CB  0000              add [eax],al
000009CD  0000              add [eax],al
000009CF  0000              add [eax],al
000009D1  0000              add [eax],al
000009D3  0000              add [eax],al
000009D5  0000              add [eax],al
000009D7  0000              add [eax],al
000009D9  0000              add [eax],al
000009DB  0000              add [eax],al
000009DD  0000              add [eax],al
000009DF  0000              add [eax],al
000009E1  0000              add [eax],al
000009E3  0000              add [eax],al
000009E5  0000              add [eax],al
000009E7  0000              add [eax],al
000009E9  0000              add [eax],al
000009EB  0000              add [eax],al
000009ED  0000              add [eax],al
000009EF  0000              add [eax],al
000009F1  0000              add [eax],al
000009F3  0000              add [eax],al
000009F5  0000              add [eax],al
000009F7  0000              add [eax],al
000009F9  0000              add [eax],al
000009FB  0000              add [eax],al
000009FD  0000              add [eax],al
000009FF  0000              add [eax],al
00000A01  0000              add [eax],al
00000A03  0000              add [eax],al
00000A05  0000              add [eax],al
00000A07  0000              add [eax],al
00000A09  0000              add [eax],al
00000A0B  0000              add [eax],al
00000A0D  0000              add [eax],al
00000A0F  0000              add [eax],al
00000A11  0000              add [eax],al
00000A13  0000              add [eax],al
00000A15  0000              add [eax],al
00000A17  0000              add [eax],al
00000A19  0000              add [eax],al
00000A1B  0000              add [eax],al
00000A1D  0000              add [eax],al
00000A1F  0000              add [eax],al
00000A21  0000              add [eax],al
00000A23  0000              add [eax],al
00000A25  0000              add [eax],al
00000A27  0000              add [eax],al
00000A29  0000              add [eax],al
00000A2B  0000              add [eax],al
00000A2D  0000              add [eax],al
00000A2F  0000              add [eax],al
00000A31  0000              add [eax],al
00000A33  0000              add [eax],al
00000A35  0000              add [eax],al
00000A37  0000              add [eax],al
00000A39  0000              add [eax],al
00000A3B  0000              add [eax],al
00000A3D  0000              add [eax],al
00000A3F  0000              add [eax],al
00000A41  0000              add [eax],al
00000A43  0000              add [eax],al
00000A45  0000              add [eax],al
00000A47  0000              add [eax],al
00000A49  0000              add [eax],al
00000A4B  0000              add [eax],al
00000A4D  0000              add [eax],al
00000A4F  0000              add [eax],al
00000A51  0000              add [eax],al
00000A53  0000              add [eax],al
00000A55  0000              add [eax],al
00000A57  0000              add [eax],al
00000A59  0000              add [eax],al
00000A5B  0000              add [eax],al
00000A5D  0000              add [eax],al
00000A5F  0000              add [eax],al
00000A61  0000              add [eax],al
00000A63  0000              add [eax],al
00000A65  0000              add [eax],al
00000A67  0000              add [eax],al
00000A69  0000              add [eax],al
00000A6B  0000              add [eax],al
00000A6D  0000              add [eax],al
00000A6F  0000              add [eax],al
00000A71  0000              add [eax],al
00000A73  0000              add [eax],al
00000A75  0000              add [eax],al
00000A77  0000              add [eax],al
00000A79  0000              add [eax],al
00000A7B  0000              add [eax],al
00000A7D  0000              add [eax],al
00000A7F  0000              add [eax],al
00000A81  0000              add [eax],al
00000A83  0000              add [eax],al
00000A85  0000              add [eax],al
00000A87  0000              add [eax],al
00000A89  0000              add [eax],al
00000A8B  0000              add [eax],al
00000A8D  0000              add [eax],al
00000A8F  0000              add [eax],al
00000A91  0000              add [eax],al
00000A93  0000              add [eax],al
00000A95  0000              add [eax],al
00000A97  0000              add [eax],al
00000A99  0000              add [eax],al
00000A9B  0000              add [eax],al
00000A9D  0000              add [eax],al
00000A9F  0000              add [eax],al
00000AA1  0000              add [eax],al
00000AA3  0000              add [eax],al
00000AA5  0000              add [eax],al
00000AA7  0000              add [eax],al
00000AA9  0000              add [eax],al
00000AAB  0000              add [eax],al
00000AAD  0000              add [eax],al
00000AAF  0000              add [eax],al
00000AB1  0000              add [eax],al
00000AB3  0000              add [eax],al
00000AB5  0000              add [eax],al
00000AB7  0000              add [eax],al
00000AB9  0000              add [eax],al
00000ABB  0000              add [eax],al
00000ABD  0000              add [eax],al
00000ABF  0000              add [eax],al
00000AC1  0000              add [eax],al
00000AC3  0000              add [eax],al
00000AC5  0000              add [eax],al
00000AC7  0000              add [eax],al
00000AC9  0000              add [eax],al
00000ACB  0000              add [eax],al
00000ACD  0000              add [eax],al
00000ACF  0000              add [eax],al
00000AD1  0000              add [eax],al
00000AD3  0000              add [eax],al
00000AD5  0000              add [eax],al
00000AD7  0000              add [eax],al
00000AD9  0000              add [eax],al
00000ADB  0000              add [eax],al
00000ADD  0000              add [eax],al
00000ADF  0000              add [eax],al
00000AE1  0000              add [eax],al
00000AE3  0000              add [eax],al
00000AE5  0000              add [eax],al
00000AE7  0000              add [eax],al
00000AE9  0000              add [eax],al
00000AEB  0000              add [eax],al
00000AED  0000              add [eax],al
00000AEF  0000              add [eax],al
00000AF1  0000              add [eax],al
00000AF3  0000              add [eax],al
00000AF5  0000              add [eax],al
00000AF7  0000              add [eax],al
00000AF9  0000              add [eax],al
00000AFB  0000              add [eax],al
00000AFD  0000              add [eax],al
00000AFF  0000              add [eax],al
00000B01  0000              add [eax],al
00000B03  0000              add [eax],al
00000B05  0000              add [eax],al
00000B07  0000              add [eax],al
00000B09  0000              add [eax],al
00000B0B  0000              add [eax],al
00000B0D  0000              add [eax],al
00000B0F  0000              add [eax],al
00000B11  0000              add [eax],al
00000B13  0000              add [eax],al
00000B15  0000              add [eax],al
00000B17  0000              add [eax],al
00000B19  0000              add [eax],al
00000B1B  0000              add [eax],al
00000B1D  0000              add [eax],al
00000B1F  0000              add [eax],al
00000B21  0000              add [eax],al
00000B23  0000              add [eax],al
00000B25  0000              add [eax],al
00000B27  0000              add [eax],al
00000B29  0000              add [eax],al
00000B2B  0000              add [eax],al
00000B2D  0000              add [eax],al
00000B2F  0000              add [eax],al
00000B31  0000              add [eax],al
00000B33  0000              add [eax],al
00000B35  0000              add [eax],al
00000B37  0000              add [eax],al
00000B39  0000              add [eax],al
00000B3B  0000              add [eax],al
00000B3D  0000              add [eax],al
00000B3F  0000              add [eax],al
00000B41  0000              add [eax],al
00000B43  0000              add [eax],al
00000B45  0000              add [eax],al
00000B47  0000              add [eax],al
00000B49  0000              add [eax],al
00000B4B  0000              add [eax],al
00000B4D  0000              add [eax],al
00000B4F  0000              add [eax],al
00000B51  0000              add [eax],al
00000B53  0000              add [eax],al
00000B55  0000              add [eax],al
00000B57  0000              add [eax],al
00000B59  0000              add [eax],al
00000B5B  0000              add [eax],al
00000B5D  0000              add [eax],al
00000B5F  0000              add [eax],al
00000B61  0000              add [eax],al
00000B63  0000              add [eax],al
00000B65  0000              add [eax],al
00000B67  0000              add [eax],al
00000B69  0000              add [eax],al
00000B6B  0000              add [eax],al
00000B6D  0000              add [eax],al
00000B6F  0000              add [eax],al
00000B71  0000              add [eax],al
00000B73  0000              add [eax],al
00000B75  0000              add [eax],al
00000B77  0000              add [eax],al
00000B79  0000              add [eax],al
00000B7B  0000              add [eax],al
00000B7D  0000              add [eax],al
00000B7F  0000              add [eax],al
00000B81  0000              add [eax],al
00000B83  0000              add [eax],al
00000B85  0000              add [eax],al
00000B87  0000              add [eax],al
00000B89  0000              add [eax],al
00000B8B  0000              add [eax],al
00000B8D  0000              add [eax],al
00000B8F  0000              add [eax],al
00000B91  0000              add [eax],al
00000B93  0000              add [eax],al
00000B95  0000              add [eax],al
00000B97  0000              add [eax],al
00000B99  0000              add [eax],al
00000B9B  0000              add [eax],al
00000B9D  0000              add [eax],al
00000B9F  0000              add [eax],al
00000BA1  0000              add [eax],al
00000BA3  0000              add [eax],al
00000BA5  0000              add [eax],al
00000BA7  0000              add [eax],al
00000BA9  0000              add [eax],al
00000BAB  0000              add [eax],al
00000BAD  0000              add [eax],al
00000BAF  0000              add [eax],al
00000BB1  0000              add [eax],al
00000BB3  0000              add [eax],al
00000BB5  0000              add [eax],al
00000BB7  0000              add [eax],al
00000BB9  0000              add [eax],al
00000BBB  0000              add [eax],al
00000BBD  0000              add [eax],al
00000BBF  0000              add [eax],al
00000BC1  0000              add [eax],al
00000BC3  0000              add [eax],al
00000BC5  0000              add [eax],al
00000BC7  0000              add [eax],al
00000BC9  0000              add [eax],al
00000BCB  0000              add [eax],al
00000BCD  0000              add [eax],al
00000BCF  0000              add [eax],al
00000BD1  0000              add [eax],al
00000BD3  0000              add [eax],al
00000BD5  0000              add [eax],al
00000BD7  0000              add [eax],al
00000BD9  0000              add [eax],al
00000BDB  0000              add [eax],al
00000BDD  0000              add [eax],al
00000BDF  0000              add [eax],al
00000BE1  0000              add [eax],al
00000BE3  0000              add [eax],al
00000BE5  0000              add [eax],al
00000BE7  0000              add [eax],al
00000BE9  0000              add [eax],al
00000BEB  0000              add [eax],al
00000BED  0000              add [eax],al
00000BEF  0000              add [eax],al
00000BF1  0000              add [eax],al
00000BF3  0000              add [eax],al
00000BF5  0000              add [eax],al
00000BF7  0000              add [eax],al
00000BF9  0000              add [eax],al
00000BFB  0000              add [eax],al
00000BFD  0000              add [eax],al
00000BFF  0000              add [eax],al
00000C01  0000              add [eax],al
00000C03  0000              add [eax],al
00000C05  0000              add [eax],al
00000C07  0000              add [eax],al
00000C09  0000              add [eax],al
00000C0B  0000              add [eax],al
00000C0D  0000              add [eax],al
00000C0F  0000              add [eax],al
00000C11  0000              add [eax],al
00000C13  0000              add [eax],al
00000C15  0000              add [eax],al
00000C17  0000              add [eax],al
00000C19  0000              add [eax],al
00000C1B  0000              add [eax],al
00000C1D  0000              add [eax],al
00000C1F  0000              add [eax],al
00000C21  0000              add [eax],al
00000C23  0000              add [eax],al
00000C25  0000              add [eax],al
00000C27  0000              add [eax],al
00000C29  0000              add [eax],al
00000C2B  0000              add [eax],al
00000C2D  0000              add [eax],al
00000C2F  0000              add [eax],al
00000C31  0000              add [eax],al
00000C33  0000              add [eax],al
00000C35  0000              add [eax],al
00000C37  0000              add [eax],al
00000C39  0000              add [eax],al
00000C3B  0000              add [eax],al
00000C3D  0000              add [eax],al
00000C3F  0000              add [eax],al
00000C41  0000              add [eax],al
00000C43  0000              add [eax],al
00000C45  0000              add [eax],al
00000C47  0000              add [eax],al
00000C49  0000              add [eax],al
00000C4B  0000              add [eax],al
00000C4D  0000              add [eax],al
00000C4F  0000              add [eax],al
00000C51  0000              add [eax],al
00000C53  0000              add [eax],al
00000C55  0000              add [eax],al
00000C57  0000              add [eax],al
00000C59  0000              add [eax],al
00000C5B  0000              add [eax],al
00000C5D  0000              add [eax],al
00000C5F  0000              add [eax],al
00000C61  0000              add [eax],al
00000C63  0000              add [eax],al
00000C65  0000              add [eax],al
00000C67  0000              add [eax],al
00000C69  0000              add [eax],al
00000C6B  0000              add [eax],al
00000C6D  0000              add [eax],al
00000C6F  0000              add [eax],al
00000C71  0000              add [eax],al
00000C73  0000              add [eax],al
00000C75  0000              add [eax],al
00000C77  0000              add [eax],al
00000C79  0000              add [eax],al
00000C7B  0000              add [eax],al
00000C7D  0000              add [eax],al
00000C7F  0000              add [eax],al
00000C81  0000              add [eax],al
00000C83  0000              add [eax],al
00000C85  0000              add [eax],al
00000C87  0000              add [eax],al
00000C89  0000              add [eax],al
00000C8B  0000              add [eax],al
00000C8D  0000              add [eax],al
00000C8F  0000              add [eax],al
00000C91  0000              add [eax],al
00000C93  0000              add [eax],al
00000C95  0000              add [eax],al
00000C97  0000              add [eax],al
00000C99  0000              add [eax],al
00000C9B  0000              add [eax],al
00000C9D  0000              add [eax],al
00000C9F  0000              add [eax],al
00000CA1  0000              add [eax],al
00000CA3  0000              add [eax],al
00000CA5  0000              add [eax],al
00000CA7  0000              add [eax],al
00000CA9  0000              add [eax],al
00000CAB  0000              add [eax],al
00000CAD  0000              add [eax],al
00000CAF  0000              add [eax],al
00000CB1  0000              add [eax],al
00000CB3  0000              add [eax],al
00000CB5  0000              add [eax],al
00000CB7  0000              add [eax],al
00000CB9  0000              add [eax],al
00000CBB  0000              add [eax],al
00000CBD  0000              add [eax],al
00000CBF  0000              add [eax],al
00000CC1  0000              add [eax],al
00000CC3  0000              add [eax],al
00000CC5  0000              add [eax],al
00000CC7  0000              add [eax],al
00000CC9  0000              add [eax],al
00000CCB  0000              add [eax],al
00000CCD  0000              add [eax],al
00000CCF  0000              add [eax],al
00000CD1  0000              add [eax],al
00000CD3  0000              add [eax],al
00000CD5  0000              add [eax],al
00000CD7  0000              add [eax],al
00000CD9  0000              add [eax],al
00000CDB  0000              add [eax],al
00000CDD  0000              add [eax],al
00000CDF  0000              add [eax],al
00000CE1  0000              add [eax],al
00000CE3  0000              add [eax],al
00000CE5  0000              add [eax],al
00000CE7  0000              add [eax],al
00000CE9  0000              add [eax],al
00000CEB  0000              add [eax],al
00000CED  0000              add [eax],al
00000CEF  0000              add [eax],al
00000CF1  0000              add [eax],al
00000CF3  0000              add [eax],al
00000CF5  0000              add [eax],al
00000CF7  0000              add [eax],al
00000CF9  0000              add [eax],al
00000CFB  0000              add [eax],al
00000CFD  0000              add [eax],al
00000CFF  0000              add [eax],al
00000D01  0000              add [eax],al
00000D03  0000              add [eax],al
00000D05  0000              add [eax],al
00000D07  0000              add [eax],al
00000D09  0000              add [eax],al
00000D0B  0000              add [eax],al
00000D0D  0000              add [eax],al
00000D0F  0000              add [eax],al
00000D11  0000              add [eax],al
00000D13  0000              add [eax],al
00000D15  0000              add [eax],al
00000D17  0000              add [eax],al
00000D19  0000              add [eax],al
00000D1B  0000              add [eax],al
00000D1D  0000              add [eax],al
00000D1F  0000              add [eax],al
00000D21  0000              add [eax],al
00000D23  0000              add [eax],al
00000D25  0000              add [eax],al
00000D27  0000              add [eax],al
00000D29  0000              add [eax],al
00000D2B  0000              add [eax],al
00000D2D  0000              add [eax],al
00000D2F  0000              add [eax],al
00000D31  0000              add [eax],al
00000D33  0000              add [eax],al
00000D35  0000              add [eax],al
00000D37  0000              add [eax],al
00000D39  0000              add [eax],al
00000D3B  0000              add [eax],al
00000D3D  0000              add [eax],al
00000D3F  0000              add [eax],al
00000D41  0000              add [eax],al
00000D43  0000              add [eax],al
00000D45  0000              add [eax],al
00000D47  0000              add [eax],al
00000D49  0000              add [eax],al
00000D4B  0000              add [eax],al
00000D4D  0000              add [eax],al
00000D4F  0000              add [eax],al
00000D51  0000              add [eax],al
00000D53  0000              add [eax],al
00000D55  0000              add [eax],al
00000D57  0000              add [eax],al
00000D59  0000              add [eax],al
00000D5B  0000              add [eax],al
00000D5D  0000              add [eax],al
00000D5F  0000              add [eax],al
00000D61  0000              add [eax],al
00000D63  0000              add [eax],al
00000D65  0000              add [eax],al
00000D67  0000              add [eax],al
00000D69  0000              add [eax],al
00000D6B  0000              add [eax],al
00000D6D  0000              add [eax],al
00000D6F  0000              add [eax],al
00000D71  0000              add [eax],al
00000D73  0000              add [eax],al
00000D75  0000              add [eax],al
00000D77  0000              add [eax],al
00000D79  0000              add [eax],al
00000D7B  0000              add [eax],al
00000D7D  0000              add [eax],al
00000D7F  0000              add [eax],al
00000D81  0000              add [eax],al
00000D83  0000              add [eax],al
00000D85  0000              add [eax],al
00000D87  0000              add [eax],al
00000D89  0000              add [eax],al
00000D8B  0000              add [eax],al
00000D8D  0000              add [eax],al
00000D8F  0000              add [eax],al
00000D91  0000              add [eax],al
00000D93  0000              add [eax],al
00000D95  0000              add [eax],al
00000D97  0000              add [eax],al
00000D99  0000              add [eax],al
00000D9B  0000              add [eax],al
00000D9D  0000              add [eax],al
00000D9F  0000              add [eax],al
00000DA1  0000              add [eax],al
00000DA3  0000              add [eax],al
00000DA5  0000              add [eax],al
00000DA7  0000              add [eax],al
00000DA9  0000              add [eax],al
00000DAB  0000              add [eax],al
00000DAD  0000              add [eax],al
00000DAF  0000              add [eax],al
00000DB1  0000              add [eax],al
00000DB3  0000              add [eax],al
00000DB5  0000              add [eax],al
00000DB7  0000              add [eax],al
00000DB9  0000              add [eax],al
00000DBB  0000              add [eax],al
00000DBD  0000              add [eax],al
00000DBF  0000              add [eax],al
00000DC1  0000              add [eax],al
00000DC3  0000              add [eax],al
00000DC5  0000              add [eax],al
00000DC7  0000              add [eax],al
00000DC9  0000              add [eax],al
00000DCB  0000              add [eax],al
00000DCD  0000              add [eax],al
00000DCF  0000              add [eax],al
00000DD1  0000              add [eax],al
00000DD3  0000              add [eax],al
00000DD5  0000              add [eax],al
00000DD7  0000              add [eax],al
00000DD9  0000              add [eax],al
00000DDB  0000              add [eax],al
00000DDD  0000              add [eax],al
00000DDF  0000              add [eax],al
00000DE1  0000              add [eax],al
00000DE3  0000              add [eax],al
00000DE5  0000              add [eax],al
00000DE7  0000              add [eax],al
00000DE9  0000              add [eax],al
00000DEB  0000              add [eax],al
00000DED  0000              add [eax],al
00000DEF  0000              add [eax],al
00000DF1  0000              add [eax],al
00000DF3  0000              add [eax],al
00000DF5  0000              add [eax],al
00000DF7  0000              add [eax],al
00000DF9  0000              add [eax],al
00000DFB  0000              add [eax],al
00000DFD  0000              add [eax],al
00000DFF  0000              add [eax],al
00000E01  0000              add [eax],al
00000E03  0000              add [eax],al
00000E05  0000              add [eax],al
00000E07  0000              add [eax],al
00000E09  0000              add [eax],al
00000E0B  0000              add [eax],al
00000E0D  0000              add [eax],al
00000E0F  0000              add [eax],al
00000E11  0000              add [eax],al
00000E13  0000              add [eax],al
00000E15  0000              add [eax],al
00000E17  0000              add [eax],al
00000E19  0000              add [eax],al
00000E1B  0000              add [eax],al
00000E1D  0000              add [eax],al
00000E1F  0000              add [eax],al
00000E21  0000              add [eax],al
00000E23  0000              add [eax],al
00000E25  0000              add [eax],al
00000E27  0000              add [eax],al
00000E29  0000              add [eax],al
00000E2B  0000              add [eax],al
00000E2D  0000              add [eax],al
00000E2F  0000              add [eax],al
00000E31  0000              add [eax],al
00000E33  0000              add [eax],al
00000E35  0000              add [eax],al
00000E37  0000              add [eax],al
00000E39  0000              add [eax],al
00000E3B  0000              add [eax],al
00000E3D  0000              add [eax],al
00000E3F  0000              add [eax],al
00000E41  0000              add [eax],al
00000E43  0000              add [eax],al
00000E45  0000              add [eax],al
00000E47  0000              add [eax],al
00000E49  0000              add [eax],al
00000E4B  0000              add [eax],al
00000E4D  0000              add [eax],al
00000E4F  0000              add [eax],al
00000E51  0000              add [eax],al
00000E53  0000              add [eax],al
00000E55  0000              add [eax],al
00000E57  0000              add [eax],al
00000E59  0000              add [eax],al
00000E5B  0000              add [eax],al
00000E5D  0000              add [eax],al
00000E5F  0000              add [eax],al
00000E61  0000              add [eax],al
00000E63  0000              add [eax],al
00000E65  0000              add [eax],al
00000E67  0000              add [eax],al
00000E69  0000              add [eax],al
00000E6B  0000              add [eax],al
00000E6D  0000              add [eax],al
00000E6F  0000              add [eax],al
00000E71  0000              add [eax],al
00000E73  0000              add [eax],al
00000E75  0000              add [eax],al
00000E77  0000              add [eax],al
00000E79  0000              add [eax],al
00000E7B  0000              add [eax],al
00000E7D  0000              add [eax],al
00000E7F  0000              add [eax],al
00000E81  0000              add [eax],al
00000E83  0000              add [eax],al
00000E85  0000              add [eax],al
00000E87  0000              add [eax],al
00000E89  0000              add [eax],al
00000E8B  0000              add [eax],al
00000E8D  0000              add [eax],al
00000E8F  0000              add [eax],al
00000E91  0000              add [eax],al
00000E93  0000              add [eax],al
00000E95  0000              add [eax],al
00000E97  0000              add [eax],al
00000E99  0000              add [eax],al
00000E9B  0000              add [eax],al
00000E9D  0000              add [eax],al
00000E9F  0000              add [eax],al
00000EA1  0000              add [eax],al
00000EA3  0000              add [eax],al
00000EA5  0000              add [eax],al
00000EA7  0000              add [eax],al
00000EA9  0000              add [eax],al
00000EAB  0000              add [eax],al
00000EAD  0000              add [eax],al
00000EAF  0000              add [eax],al
00000EB1  0000              add [eax],al
00000EB3  0000              add [eax],al
00000EB5  0000              add [eax],al
00000EB7  0000              add [eax],al
00000EB9  0000              add [eax],al
00000EBB  0000              add [eax],al
00000EBD  0000              add [eax],al
00000EBF  0000              add [eax],al
00000EC1  0000              add [eax],al
00000EC3  0000              add [eax],al
00000EC5  0000              add [eax],al
00000EC7  0000              add [eax],al
00000EC9  0000              add [eax],al
00000ECB  0000              add [eax],al
00000ECD  0000              add [eax],al
00000ECF  0000              add [eax],al
00000ED1  0000              add [eax],al
00000ED3  0000              add [eax],al
00000ED5  0000              add [eax],al
00000ED7  0000              add [eax],al
00000ED9  0000              add [eax],al
00000EDB  0000              add [eax],al
00000EDD  0000              add [eax],al
00000EDF  0000              add [eax],al
00000EE1  0000              add [eax],al
00000EE3  0000              add [eax],al
00000EE5  0000              add [eax],al
00000EE7  0000              add [eax],al
00000EE9  0000              add [eax],al
00000EEB  0000              add [eax],al
00000EED  0000              add [eax],al
00000EEF  0000              add [eax],al
00000EF1  0000              add [eax],al
00000EF3  0000              add [eax],al
00000EF5  0000              add [eax],al
00000EF7  0000              add [eax],al
00000EF9  0000              add [eax],al
00000EFB  0000              add [eax],al
00000EFD  0000              add [eax],al
00000EFF  0000              add [eax],al
00000F01  0000              add [eax],al
00000F03  0000              add [eax],al
00000F05  0000              add [eax],al
00000F07  0000              add [eax],al
00000F09  0000              add [eax],al
00000F0B  0000              add [eax],al
00000F0D  0000              add [eax],al
00000F0F  0000              add [eax],al
00000F11  0000              add [eax],al
00000F13  0000              add [eax],al
00000F15  0000              add [eax],al
00000F17  0000              add [eax],al
00000F19  0000              add [eax],al
00000F1B  0000              add [eax],al
00000F1D  0000              add [eax],al
00000F1F  0000              add [eax],al
00000F21  0000              add [eax],al
00000F23  0000              add [eax],al
00000F25  0000              add [eax],al
00000F27  0000              add [eax],al
00000F29  0000              add [eax],al
00000F2B  0000              add [eax],al
00000F2D  0000              add [eax],al
00000F2F  0000              add [eax],al
00000F31  0000              add [eax],al
00000F33  0000              add [eax],al
00000F35  0000              add [eax],al
00000F37  0000              add [eax],al
00000F39  0000              add [eax],al
00000F3B  0000              add [eax],al
00000F3D  0000              add [eax],al
00000F3F  0000              add [eax],al
00000F41  0000              add [eax],al
00000F43  0000              add [eax],al
00000F45  0000              add [eax],al
00000F47  0000              add [eax],al
00000F49  0000              add [eax],al
00000F4B  0000              add [eax],al
00000F4D  0000              add [eax],al
00000F4F  0000              add [eax],al
00000F51  0000              add [eax],al
00000F53  0000              add [eax],al
00000F55  0000              add [eax],al
00000F57  0000              add [eax],al
00000F59  0000              add [eax],al
00000F5B  0000              add [eax],al
00000F5D  0000              add [eax],al
00000F5F  0000              add [eax],al
00000F61  0000              add [eax],al
00000F63  0000              add [eax],al
00000F65  0000              add [eax],al
00000F67  0000              add [eax],al
00000F69  0000              add [eax],al
00000F6B  0000              add [eax],al
00000F6D  0000              add [eax],al
00000F6F  0000              add [eax],al
00000F71  0000              add [eax],al
00000F73  0000              add [eax],al
00000F75  0000              add [eax],al
00000F77  0000              add [eax],al
00000F79  0000              add [eax],al
00000F7B  0000              add [eax],al
00000F7D  0000              add [eax],al
00000F7F  0000              add [eax],al
00000F81  0000              add [eax],al
00000F83  0000              add [eax],al
00000F85  0000              add [eax],al
00000F87  0000              add [eax],al
00000F89  0000              add [eax],al
00000F8B  0000              add [eax],al
00000F8D  0000              add [eax],al
00000F8F  0000              add [eax],al
00000F91  0000              add [eax],al
00000F93  0000              add [eax],al
00000F95  0000              add [eax],al
00000F97  0000              add [eax],al
00000F99  0000              add [eax],al
00000F9B  0000              add [eax],al
00000F9D  0000              add [eax],al
00000F9F  0000              add [eax],al
00000FA1  0000              add [eax],al
00000FA3  0000              add [eax],al
00000FA5  0000              add [eax],al
00000FA7  0000              add [eax],al
00000FA9  0000              add [eax],al
00000FAB  0000              add [eax],al
00000FAD  0000              add [eax],al
00000FAF  0000              add [eax],al
00000FB1  0000              add [eax],al
00000FB3  0000              add [eax],al
00000FB5  0000              add [eax],al
00000FB7  0000              add [eax],al
00000FB9  0000              add [eax],al
00000FBB  0000              add [eax],al
00000FBD  0000              add [eax],al
00000FBF  0000              add [eax],al
00000FC1  0000              add [eax],al
00000FC3  0000              add [eax],al
00000FC5  0000              add [eax],al
00000FC7  0000              add [eax],al
00000FC9  0000              add [eax],al
00000FCB  0000              add [eax],al
00000FCD  0000              add [eax],al
00000FCF  0000              add [eax],al
00000FD1  0000              add [eax],al
00000FD3  0000              add [eax],al
00000FD5  0000              add [eax],al
00000FD7  0000              add [eax],al
00000FD9  0000              add [eax],al
00000FDB  0000              add [eax],al
00000FDD  0000              add [eax],al
00000FDF  0000              add [eax],al
00000FE1  0000              add [eax],al
00000FE3  0000              add [eax],al
00000FE5  0000              add [eax],al
00000FE7  0000              add [eax],al
00000FE9  0000              add [eax],al
00000FEB  0000              add [eax],al
00000FED  0000              add [eax],al
00000FEF  0000              add [eax],al
00000FF1  0000              add [eax],al
00000FF3  0000              add [eax],al
00000FF5  0000              add [eax],al
00000FF7  0000              add [eax],al
00000FF9  0000              add [eax],al
00000FFB  0000              add [eax],al
00000FFD  0000              add [eax],al
00000FFF  0000              add [eax],al
00001001  0000              add [eax],al
00001003  0000              add [eax],al
00001005  0000              add [eax],al
00001007  0000              add [eax],al
00001009  0000              add [eax],al
0000100B  0000              add [eax],al
0000100D  0000              add [eax],al
0000100F  0000              add [eax],al
00001011  0000              add [eax],al
00001013  0000              add [eax],al
00001015  0000              add [eax],al
00001017  0000              add [eax],al
00001019  0000              add [eax],al
0000101B  0000              add [eax],al
0000101D  0000              add [eax],al
0000101F  0000              add [eax],al
00001021  0000              add [eax],al
00001023  0000              add [eax],al
00001025  0000              add [eax],al
00001027  0000              add [eax],al
00001029  0000              add [eax],al
0000102B  0000              add [eax],al
0000102D  0000              add [eax],al
0000102F  0000              add [eax],al
00001031  0000              add [eax],al
00001033  0000              add [eax],al
00001035  0000              add [eax],al
00001037  0000              add [eax],al
00001039  0000              add [eax],al
0000103B  0000              add [eax],al
0000103D  0000              add [eax],al
0000103F  0000              add [eax],al
00001041  0000              add [eax],al
00001043  0000              add [eax],al
00001045  0000              add [eax],al
00001047  0000              add [eax],al
00001049  0000              add [eax],al
0000104B  0000              add [eax],al
0000104D  0000              add [eax],al
0000104F  0000              add [eax],al
00001051  0000              add [eax],al
00001053  0000              add [eax],al
00001055  0000              add [eax],al
00001057  0000              add [eax],al
00001059  0000              add [eax],al
0000105B  0000              add [eax],al
0000105D  0000              add [eax],al
0000105F  0000              add [eax],al
00001061  0000              add [eax],al
00001063  0000              add [eax],al
00001065  0000              add [eax],al
00001067  0000              add [eax],al
00001069  0000              add [eax],al
0000106B  0000              add [eax],al
0000106D  0000              add [eax],al
0000106F  0000              add [eax],al
00001071  0000              add [eax],al
00001073  0000              add [eax],al
00001075  0000              add [eax],al
00001077  0000              add [eax],al
00001079  0000              add [eax],al
0000107B  0000              add [eax],al
0000107D  0000              add [eax],al
0000107F  0000              add [eax],al
00001081  0000              add [eax],al
00001083  0000              add [eax],al
00001085  0000              add [eax],al
00001087  0000              add [eax],al
00001089  0000              add [eax],al
0000108B  0000              add [eax],al
0000108D  0000              add [eax],al
0000108F  0000              add [eax],al
00001091  0000              add [eax],al
00001093  0000              add [eax],al
00001095  0000              add [eax],al
00001097  0000              add [eax],al
00001099  0000              add [eax],al
0000109B  0000              add [eax],al
0000109D  0000              add [eax],al
0000109F  0000              add [eax],al
000010A1  0000              add [eax],al
000010A3  0000              add [eax],al
000010A5  0000              add [eax],al
000010A7  0000              add [eax],al
000010A9  0000              add [eax],al
000010AB  0000              add [eax],al
000010AD  0000              add [eax],al
000010AF  0000              add [eax],al
000010B1  0000              add [eax],al
000010B3  0000              add [eax],al
000010B5  0000              add [eax],al
000010B7  0000              add [eax],al
000010B9  0000              add [eax],al
000010BB  0000              add [eax],al
000010BD  0000              add [eax],al
000010BF  0000              add [eax],al
000010C1  0000              add [eax],al
000010C3  0000              add [eax],al
000010C5  0000              add [eax],al
000010C7  0000              add [eax],al
000010C9  0000              add [eax],al
000010CB  0000              add [eax],al
000010CD  0000              add [eax],al
000010CF  0000              add [eax],al
000010D1  0000              add [eax],al
000010D3  0000              add [eax],al
000010D5  0000              add [eax],al
000010D7  0000              add [eax],al
000010D9  0000              add [eax],al
000010DB  0000              add [eax],al
000010DD  0000              add [eax],al
000010DF  0000              add [eax],al
000010E1  0000              add [eax],al
000010E3  0000              add [eax],al
000010E5  0000              add [eax],al
000010E7  0000              add [eax],al
000010E9  0000              add [eax],al
000010EB  0000              add [eax],al
000010ED  0000              add [eax],al
000010EF  0000              add [eax],al
000010F1  0000              add [eax],al
000010F3  0000              add [eax],al
000010F5  0000              add [eax],al
000010F7  0000              add [eax],al
000010F9  0000              add [eax],al
000010FB  0000              add [eax],al
000010FD  0000              add [eax],al
000010FF  0000              add [eax],al
00001101  0000              add [eax],al
00001103  0000              add [eax],al
00001105  0000              add [eax],al
00001107  0000              add [eax],al
00001109  0000              add [eax],al
0000110B  0000              add [eax],al
0000110D  0000              add [eax],al
0000110F  0000              add [eax],al
00001111  0000              add [eax],al
00001113  0000              add [eax],al
00001115  0000              add [eax],al
00001117  0000              add [eax],al
00001119  0000              add [eax],al
0000111B  0000              add [eax],al
0000111D  0000              add [eax],al
0000111F  0000              add [eax],al
00001121  0000              add [eax],al
00001123  0000              add [eax],al
00001125  0000              add [eax],al
00001127  0000              add [eax],al
00001129  0000              add [eax],al
0000112B  0000              add [eax],al
0000112D  0000              add [eax],al
0000112F  0000              add [eax],al
00001131  0000              add [eax],al
00001133  0000              add [eax],al
00001135  0000              add [eax],al
00001137  0000              add [eax],al
00001139  0000              add [eax],al
0000113B  0000              add [eax],al
0000113D  0000              add [eax],al
0000113F  0000              add [eax],al
00001141  0000              add [eax],al
00001143  0000              add [eax],al
00001145  0000              add [eax],al
00001147  0000              add [eax],al
00001149  0000              add [eax],al
0000114B  0000              add [eax],al
0000114D  0000              add [eax],al
0000114F  0000              add [eax],al
00001151  0000              add [eax],al
00001153  0000              add [eax],al
00001155  0000              add [eax],al
00001157  0000              add [eax],al
00001159  0000              add [eax],al
0000115B  0000              add [eax],al
0000115D  0000              add [eax],al
0000115F  0000              add [eax],al
00001161  0000              add [eax],al
00001163  0000              add [eax],al
00001165  0000              add [eax],al
00001167  0000              add [eax],al
00001169  0000              add [eax],al
0000116B  0000              add [eax],al
0000116D  0000              add [eax],al
0000116F  0000              add [eax],al
00001171  0000              add [eax],al
00001173  0000              add [eax],al
00001175  0000              add [eax],al
00001177  0000              add [eax],al
00001179  0000              add [eax],al
0000117B  0000              add [eax],al
0000117D  0000              add [eax],al
0000117F  0000              add [eax],al
00001181  0000              add [eax],al
00001183  0000              add [eax],al
00001185  0000              add [eax],al
00001187  0000              add [eax],al
00001189  0000              add [eax],al
0000118B  0000              add [eax],al
0000118D  0000              add [eax],al
0000118F  0000              add [eax],al
00001191  0000              add [eax],al
00001193  0000              add [eax],al
00001195  0000              add [eax],al
00001197  0000              add [eax],al
00001199  0000              add [eax],al
0000119B  0000              add [eax],al
0000119D  0000              add [eax],al
0000119F  0000              add [eax],al
000011A1  0000              add [eax],al
000011A3  0000              add [eax],al
000011A5  0000              add [eax],al
000011A7  0000              add [eax],al
000011A9  0000              add [eax],al
000011AB  0000              add [eax],al
000011AD  0000              add [eax],al
000011AF  0000              add [eax],al
000011B1  0000              add [eax],al
000011B3  0000              add [eax],al
000011B5  0000              add [eax],al
000011B7  0000              add [eax],al
000011B9  0000              add [eax],al
000011BB  0000              add [eax],al
000011BD  0000              add [eax],al
000011BF  0000              add [eax],al
000011C1  0000              add [eax],al
000011C3  0000              add [eax],al
000011C5  0000              add [eax],al
000011C7  0000              add [eax],al
000011C9  0000              add [eax],al
000011CB  0000              add [eax],al
000011CD  0000              add [eax],al
000011CF  0000              add [eax],al
000011D1  0000              add [eax],al
000011D3  0000              add [eax],al
000011D5  0000              add [eax],al
000011D7  0000              add [eax],al
000011D9  0000              add [eax],al
000011DB  0000              add [eax],al
000011DD  0000              add [eax],al
000011DF  0000              add [eax],al
000011E1  0000              add [eax],al
000011E3  0000              add [eax],al
000011E5  0000              add [eax],al
000011E7  0000              add [eax],al
000011E9  0000              add [eax],al
000011EB  0000              add [eax],al
000011ED  0000              add [eax],al
000011EF  0000              add [eax],al
000011F1  0000              add [eax],al
000011F3  0000              add [eax],al
000011F5  0000              add [eax],al
000011F7  0000              add [eax],al
000011F9  0000              add [eax],al
000011FB  0000              add [eax],al
000011FD  0000              add [eax],al
000011FF  005589            add [ebp-0x77],dl
00001202  E583              in eax,0x83
00001204  EC                in al,dx
00001205  0883EC086A11      or [ebx+0x116a08ec],al
0000120B  6A20              push byte +0x20
0000120D  E8A00D0000        call 0x1fb2
00001212  83C410            add esp,byte +0x10
00001215  83EC08            sub esp,byte +0x8
00001218  6A11              push byte +0x11
0000121A  68A0000000        push dword 0xa0
0000121F  E88E0D0000        call 0x1fb2
00001224  83C410            add esp,byte +0x10
00001227  83EC08            sub esp,byte +0x8
0000122A  6A20              push byte +0x20
0000122C  6A21              push byte +0x21
0000122E  E87F0D0000        call 0x1fb2
00001233  83C410            add esp,byte +0x10
00001236  83EC08            sub esp,byte +0x8
00001239  6A28              push byte +0x28
0000123B  68A1000000        push dword 0xa1
00001240  E86D0D0000        call 0x1fb2
00001245  83C410            add esp,byte +0x10
00001248  83EC08            sub esp,byte +0x8
0000124B  6A04              push byte +0x4
0000124D  6A21              push byte +0x21
0000124F  E85E0D0000        call 0x1fb2
00001254  83C410            add esp,byte +0x10
00001257  83EC08            sub esp,byte +0x8
0000125A  6A02              push byte +0x2
0000125C  68A1000000        push dword 0xa1
00001261  E84C0D0000        call 0x1fb2
00001266  83C410            add esp,byte +0x10
00001269  83EC08            sub esp,byte +0x8
0000126C  6A01              push byte +0x1
0000126E  6A21              push byte +0x21
00001270  E83D0D0000        call 0x1fb2
00001275  83C410            add esp,byte +0x10
00001278  83EC08            sub esp,byte +0x8
0000127B  6A01              push byte +0x1
0000127D  68A1000000        push dword 0xa1
00001282  E82B0D0000        call 0x1fb2
00001287  83C410            add esp,byte +0x10
0000128A  83EC08            sub esp,byte +0x8
0000128D  6A00              push byte +0x0
0000128F  6A21              push byte +0x21
00001291  E81C0D0000        call 0x1fb2
00001296  83C410            add esp,byte +0x10
00001299  83EC08            sub esp,byte +0x8
0000129C  6A00              push byte +0x0
0000129E  68A1000000        push dword 0xa1
000012A3  E80A0D0000        call 0x1fb2
000012A8  83C410            add esp,byte +0x10
000012AB  E80D000000        call 0x12bd
000012B0  E8C2040000        call 0x1777
000012B5  E8D6040000        call 0x1790
000012BA  90                nop
000012BB  C9                leave
000012BC  C3                ret
000012BD  55                push ebp
000012BE  89E5              mov ebp,esp
000012C0  83EC08            sub esp,byte +0x8
000012C3  B8BB150000        mov eax,0x15bb
000012C8  688E000000        push dword 0x8e
000012CD  6A08              push byte +0x8
000012CF  50                push eax
000012D0  6A00              push byte +0x0
000012D2  E83F040000        call 0x1716
000012D7  83C410            add esp,byte +0x10
000012DA  B8C5150000        mov eax,0x15c5
000012DF  688E000000        push dword 0x8e
000012E4  6A08              push byte +0x8
000012E6  50                push eax
000012E7  6A01              push byte +0x1
000012E9  E828040000        call 0x1716
000012EE  83C410            add esp,byte +0x10
000012F1  B8CF150000        mov eax,0x15cf
000012F6  688E000000        push dword 0x8e
000012FB  6A08              push byte +0x8
000012FD  50                push eax
000012FE  6A02              push byte +0x2
00001300  E811040000        call 0x1716
00001305  83C410            add esp,byte +0x10
00001308  B8D9150000        mov eax,0x15d9
0000130D  688E000000        push dword 0x8e
00001312  6A08              push byte +0x8
00001314  50                push eax
00001315  6A03              push byte +0x3
00001317  E8FA030000        call 0x1716
0000131C  83C410            add esp,byte +0x10
0000131F  B8E3150000        mov eax,0x15e3
00001324  688E000000        push dword 0x8e
00001329  6A08              push byte +0x8
0000132B  50                push eax
0000132C  6A04              push byte +0x4
0000132E  E8E3030000        call 0x1716
00001333  83C410            add esp,byte +0x10
00001336  B8ED150000        mov eax,0x15ed
0000133B  688E000000        push dword 0x8e
00001340  6A08              push byte +0x8
00001342  50                push eax
00001343  6A05              push byte +0x5
00001345  E8CC030000        call 0x1716
0000134A  83C410            add esp,byte +0x10
0000134D  B8F7150000        mov eax,0x15f7
00001352  688E000000        push dword 0x8e
00001357  6A08              push byte +0x8
00001359  50                push eax
0000135A  6A06              push byte +0x6
0000135C  E8B5030000        call 0x1716
00001361  83C410            add esp,byte +0x10
00001364  B801160000        mov eax,0x1601
00001369  688E000000        push dword 0x8e
0000136E  6A08              push byte +0x8
00001370  50                push eax
00001371  6A07              push byte +0x7
00001373  E89E030000        call 0x1716
00001378  83C410            add esp,byte +0x10
0000137B  B80B160000        mov eax,0x160b
00001380  688E000000        push dword 0x8e
00001385  6A08              push byte +0x8
00001387  50                push eax
00001388  6A08              push byte +0x8
0000138A  E887030000        call 0x1716
0000138F  83C410            add esp,byte +0x10
00001392  B813160000        mov eax,0x1613
00001397  688E000000        push dword 0x8e
0000139C  6A08              push byte +0x8
0000139E  50                push eax
0000139F  6A09              push byte +0x9
000013A1  E870030000        call 0x1716
000013A6  83C410            add esp,byte +0x10
000013A9  B81D160000        mov eax,0x161d
000013AE  688E000000        push dword 0x8e
000013B3  6A08              push byte +0x8
000013B5  50                push eax
000013B6  6A0A              push byte +0xa
000013B8  E859030000        call 0x1716
000013BD  83C410            add esp,byte +0x10
000013C0  B825160000        mov eax,0x1625
000013C5  688E000000        push dword 0x8e
000013CA  6A08              push byte +0x8
000013CC  50                push eax
000013CD  6A0B              push byte +0xb
000013CF  E842030000        call 0x1716
000013D4  83C410            add esp,byte +0x10
000013D7  B82D160000        mov eax,0x162d
000013DC  688E000000        push dword 0x8e
000013E1  6A08              push byte +0x8
000013E3  50                push eax
000013E4  6A0C              push byte +0xc
000013E6  E82B030000        call 0x1716
000013EB  83C410            add esp,byte +0x10
000013EE  B835160000        mov eax,0x1635
000013F3  688E000000        push dword 0x8e
000013F8  6A08              push byte +0x8
000013FA  50                push eax
000013FB  6A0D              push byte +0xd
000013FD  E814030000        call 0x1716
00001402  83C410            add esp,byte +0x10
00001405  B83D160000        mov eax,0x163d
0000140A  688E000000        push dword 0x8e
0000140F  6A08              push byte +0x8
00001411  50                push eax
00001412  6A0E              push byte +0xe
00001414  E8FD020000        call 0x1716
00001419  83C410            add esp,byte +0x10
0000141C  B845160000        mov eax,0x1645
00001421  688E000000        push dword 0x8e
00001426  6A08              push byte +0x8
00001428  50                push eax
00001429  6A0F              push byte +0xf
0000142B  E8E6020000        call 0x1716
00001430  83C410            add esp,byte +0x10
00001433  B84F160000        mov eax,0x164f
00001438  688E000000        push dword 0x8e
0000143D  6A08              push byte +0x8
0000143F  50                push eax
00001440  6A10              push byte +0x10
00001442  E8CF020000        call 0x1716
00001447  83C410            add esp,byte +0x10
0000144A  B859160000        mov eax,0x1659
0000144F  688E000000        push dword 0x8e
00001454  6A08              push byte +0x8
00001456  50                push eax
00001457  6A11              push byte +0x11
00001459  E8B8020000        call 0x1716
0000145E  83C410            add esp,byte +0x10
00001461  B863160000        mov eax,0x1663
00001466  688E000000        push dword 0x8e
0000146B  6A08              push byte +0x8
0000146D  50                push eax
0000146E  6A12              push byte +0x12
00001470  E8A1020000        call 0x1716
00001475  83C410            add esp,byte +0x10
00001478  B86D160000        mov eax,0x166d
0000147D  688E000000        push dword 0x8e
00001482  6A08              push byte +0x8
00001484  50                push eax
00001485  6A13              push byte +0x13
00001487  E88A020000        call 0x1716
0000148C  83C410            add esp,byte +0x10
0000148F  B877160000        mov eax,0x1677
00001494  688E000000        push dword 0x8e
00001499  6A08              push byte +0x8
0000149B  50                push eax
0000149C  6A14              push byte +0x14
0000149E  E873020000        call 0x1716
000014A3  83C410            add esp,byte +0x10
000014A6  B881160000        mov eax,0x1681
000014AB  688E000000        push dword 0x8e
000014B0  6A08              push byte +0x8
000014B2  50                push eax
000014B3  6A15              push byte +0x15
000014B5  E85C020000        call 0x1716
000014BA  83C410            add esp,byte +0x10
000014BD  B88B160000        mov eax,0x168b
000014C2  688E000000        push dword 0x8e
000014C7  6A08              push byte +0x8
000014C9  50                push eax
000014CA  6A16              push byte +0x16
000014CC  E845020000        call 0x1716
000014D1  83C410            add esp,byte +0x10
000014D4  B895160000        mov eax,0x1695
000014D9  688E000000        push dword 0x8e
000014DE  6A08              push byte +0x8
000014E0  50                push eax
000014E1  6A17              push byte +0x17
000014E3  E82E020000        call 0x1716
000014E8  83C410            add esp,byte +0x10
000014EB  B89F160000        mov eax,0x169f
000014F0  688E000000        push dword 0x8e
000014F5  6A08              push byte +0x8
000014F7  50                push eax
000014F8  6A18              push byte +0x18
000014FA  E817020000        call 0x1716
000014FF  83C410            add esp,byte +0x10
00001502  B8A9160000        mov eax,0x16a9
00001507  688E000000        push dword 0x8e
0000150C  6A08              push byte +0x8
0000150E  50                push eax
0000150F  6A19              push byte +0x19
00001511  E800020000        call 0x1716
00001516  83C410            add esp,byte +0x10
00001519  B8B3160000        mov eax,0x16b3
0000151E  688E000000        push dword 0x8e
00001523  6A08              push byte +0x8
00001525  50                push eax
00001526  6A1A              push byte +0x1a
00001528  E8E9010000        call 0x1716
0000152D  83C410            add esp,byte +0x10
00001530  B8BD160000        mov eax,0x16bd
00001535  688E000000        push dword 0x8e
0000153A  6A08              push byte +0x8
0000153C  50                push eax
0000153D  6A1B              push byte +0x1b
0000153F  E8D2010000        call 0x1716
00001544  83C410            add esp,byte +0x10
00001547  B8C7160000        mov eax,0x16c7
0000154C  688E000000        push dword 0x8e
00001551  6A08              push byte +0x8
00001553  50                push eax
00001554  6A1C              push byte +0x1c
00001556  E8BB010000        call 0x1716
0000155B  83C410            add esp,byte +0x10
0000155E  B8D1160000        mov eax,0x16d1
00001563  688E000000        push dword 0x8e
00001568  6A08              push byte +0x8
0000156A  50                push eax
0000156B  6A1D              push byte +0x1d
0000156D  E8A4010000        call 0x1716
00001572  83C410            add esp,byte +0x10
00001575  B8DB160000        mov eax,0x16db
0000157A  688E000000        push dword 0x8e
0000157F  6A08              push byte +0x8
00001581  50                push eax
00001582  6A1E              push byte +0x1e
00001584  E88D010000        call 0x1716
00001589  83C410            add esp,byte +0x10
0000158C  B8E2160000        mov eax,0x16e2
00001591  688E000000        push dword 0x8e
00001596  6A08              push byte +0x8
00001598  50                push eax
00001599  6A1F              push byte +0x1f
0000159B  E876010000        call 0x1716
000015A0  83C410            add esp,byte +0x10
000015A3  B8E9160000        mov eax,0x16e9
000015A8  688E000000        push dword 0x8e
000015AD  6A08              push byte +0x8
000015AF  50                push eax
000015B0  6A20              push byte +0x20
000015B2  E85F010000        call 0x1716
000015B7  83C410            add esp,byte +0x10
000015BA  B8F3160000        mov eax,0x16f3
000015BF  688E000000        push dword 0x8e
000015C4  6A08              push byte +0x8
000015C6  50                push eax
000015C7  6A21              push byte +0x21
000015C9  E848010000        call 0x1716
000015CE  83C410            add esp,byte +0x10
000015D1  B8FD160000        mov eax,0x16fd
000015D6  688E000000        push dword 0x8e
000015DB  6A08              push byte +0x8
000015DD  50                push eax
000015DE  6A22              push byte +0x22
000015E0  E831010000        call 0x1716
000015E5  83C410            add esp,byte +0x10
000015E8  B804170000        mov eax,0x1704
000015ED  688E000000        push dword 0x8e
000015F2  6A08              push byte +0x8
000015F4  50                push eax
000015F5  6A23              push byte +0x23
000015F7  E81A010000        call 0x1716
000015FC  83C410            add esp,byte +0x10
000015FF  B80B170000        mov eax,0x170b
00001604  688E000000        push dword 0x8e
00001609  6A08              push byte +0x8
0000160B  50                push eax
0000160C  6A24              push byte +0x24
0000160E  E803010000        call 0x1716
00001613  83C410            add esp,byte +0x10
00001616  B812170000        mov eax,0x1712
0000161B  688E000000        push dword 0x8e
00001620  6A08              push byte +0x8
00001622  50                push eax
00001623  6A25              push byte +0x25
00001625  E8EC000000        call 0x1716
0000162A  83C410            add esp,byte +0x10
0000162D  B819170000        mov eax,0x1719
00001632  688E000000        push dword 0x8e
00001637  6A08              push byte +0x8
00001639  50                push eax
0000163A  6A26              push byte +0x26
0000163C  E8D5000000        call 0x1716
00001641  83C410            add esp,byte +0x10
00001644  B820170000        mov eax,0x1720
00001649  688E000000        push dword 0x8e
0000164E  6A08              push byte +0x8
00001650  50                push eax
00001651  6A27              push byte +0x27
00001653  E8BE000000        call 0x1716
00001658  83C410            add esp,byte +0x10
0000165B  B827170000        mov eax,0x1727
00001660  688E000000        push dword 0x8e
00001665  6A08              push byte +0x8
00001667  50                push eax
00001668  6A28              push byte +0x28
0000166A  E8A7000000        call 0x1716
0000166F  83C410            add esp,byte +0x10
00001672  B82E170000        mov eax,0x172e
00001677  688E000000        push dword 0x8e
0000167C  6A08              push byte +0x8
0000167E  50                push eax
0000167F  6A29              push byte +0x29
00001681  E890000000        call 0x1716
00001686  83C410            add esp,byte +0x10
00001689  B835170000        mov eax,0x1735
0000168E  688E000000        push dword 0x8e
00001693  6A08              push byte +0x8
00001695  50                push eax
00001696  6A2A              push byte +0x2a
00001698  E879000000        call 0x1716
0000169D  83C410            add esp,byte +0x10
000016A0  B83C170000        mov eax,0x173c
000016A5  688E000000        push dword 0x8e
000016AA  6A08              push byte +0x8
000016AC  50                push eax
000016AD  6A2B              push byte +0x2b
000016AF  E862000000        call 0x1716
000016B4  83C410            add esp,byte +0x10
000016B7  B843170000        mov eax,0x1743
000016BC  688E000000        push dword 0x8e
000016C1  6A08              push byte +0x8
000016C3  50                push eax
000016C4  6A2C              push byte +0x2c
000016C6  E84B000000        call 0x1716
000016CB  83C410            add esp,byte +0x10
000016CE  B84A170000        mov eax,0x174a
000016D3  688E000000        push dword 0x8e
000016D8  6A08              push byte +0x8
000016DA  50                push eax
000016DB  6A2D              push byte +0x2d
000016DD  E834000000        call 0x1716
000016E2  83C410            add esp,byte +0x10
000016E5  B851170000        mov eax,0x1751
000016EA  688E000000        push dword 0x8e
000016EF  6A08              push byte +0x8
000016F1  50                push eax
000016F2  6A2E              push byte +0x2e
000016F4  E81D000000        call 0x1716
000016F9  83C410            add esp,byte +0x10
000016FC  B858170000        mov eax,0x1758
00001701  688E000000        push dword 0x8e
00001706  6A08              push byte +0x8
00001708  50                push eax
00001709  6A2F              push byte +0x2f
0000170B  E806000000        call 0x1716
00001710  83C410            add esp,byte +0x10
00001713  90                nop
00001714  C9                leave
00001715  C3                ret
00001716  55                push ebp
00001717  89E5              mov ebp,esp
00001719  83EC08            sub esp,byte +0x8
0000171C  8B5510            mov edx,[ebp+0x10]
0000171F  8B4514            mov eax,[ebp+0x14]
00001722  668955FC          mov [ebp-0x4],dx
00001726  8845F8            mov [ebp-0x8],al
00001729  8B450C            mov eax,[ebp+0xc]
0000172C  89C2              mov edx,eax
0000172E  8B4508            mov eax,[ebp+0x8]
00001731  668914C520400000  mov [eax*8+0x4020],dx
00001739  8B4508            mov eax,[ebp+0x8]
0000173C  0FB755FC          movzx edx,word [ebp-0x4]
00001740  668914C522400000  mov [eax*8+0x4022],dx
00001748  8B4508            mov eax,[ebp+0x8]
0000174B  C604C52440000000  mov byte [eax*8+0x4024],0x0
00001753  0FB655F8          movzx edx,byte [ebp-0x8]
00001757  8B4508            mov eax,[ebp+0x8]
0000175A  8814C525400000    mov [eax*8+0x4025],dl
00001761  8B450C            mov eax,[ebp+0xc]
00001764  C1E810            shr eax,byte 0x10
00001767  89C2              mov edx,eax
00001769  8B4508            mov eax,[ebp+0x8]
0000176C  668914C526400000  mov [eax*8+0x4026],dx
00001774  90                nop
00001775  C9                leave
00001776  C3                ret
00001777  55                push ebp
00001778  89E5              mov ebp,esp
0000177A  66C70520480000FF  mov word [dword 0x4820],0x7ff
         -07
00001783  B820400000        mov eax,0x4020
00001788  A322480000        mov [0x4822],eax
0000178D  90                nop
0000178E  5D                pop ebp
0000178F  C3                ret
00001790  55                push ebp
00001791  89E5              mov ebp,esp
00001793  83EC08            sub esp,byte +0x8
00001796  B820480000        mov eax,0x4820
0000179B  0F0118            lidt [eax]
0000179E  E8A2070000        call 0x1f45
000017A3  90                nop
000017A4  C9                leave
000017A5  C3                ret
000017A6  6690              xchg ax,ax
000017A8  6690              xchg ax,ax
000017AA  6690              xchg ax,ax
000017AC  6690              xchg ax,ax
000017AE  6690              xchg ax,ax
000017B0  89E5              mov ebp,esp
000017B2  8B4504            mov eax,[ebp+0x4]
000017B5  0F0118            lidt [eax]
000017B8  89EC              mov esp,ebp
000017BA  C3                ret
000017BB  FA                cli
000017BC  6A00              push byte +0x0
000017BE  6A00              push byte +0x0
000017C0  E99A010000        jmp 0x195f
000017C5  FA                cli
000017C6  6A00              push byte +0x0
000017C8  6A01              push byte +0x1
000017CA  E990010000        jmp 0x195f
000017CF  FA                cli
000017D0  6A00              push byte +0x0
000017D2  6A02              push byte +0x2
000017D4  E986010000        jmp 0x195f
000017D9  FA                cli
000017DA  6A00              push byte +0x0
000017DC  6A03              push byte +0x3
000017DE  E97C010000        jmp 0x195f
000017E3  FA                cli
000017E4  6A00              push byte +0x0
000017E6  6A04              push byte +0x4
000017E8  E972010000        jmp 0x195f
000017ED  FA                cli
000017EE  6A00              push byte +0x0
000017F0  6A05              push byte +0x5
000017F2  E968010000        jmp 0x195f
000017F7  FA                cli
000017F8  6A00              push byte +0x0
000017FA  6A06              push byte +0x6
000017FC  E95E010000        jmp 0x195f
00001801  FA                cli
00001802  6A00              push byte +0x0
00001804  6A07              push byte +0x7
00001806  E954010000        jmp 0x195f
0000180B  FA                cli
0000180C  6A08              push byte +0x8
0000180E  E94C010000        jmp 0x195f
00001813  FA                cli
00001814  6A00              push byte +0x0
00001816  6A09              push byte +0x9
00001818  E942010000        jmp 0x195f
0000181D  FA                cli
0000181E  6A0A              push byte +0xa
00001820  E93A010000        jmp 0x195f
00001825  FA                cli
00001826  6A0B              push byte +0xb
00001828  E932010000        jmp 0x195f
0000182D  FA                cli
0000182E  6A0C              push byte +0xc
00001830  E92A010000        jmp 0x195f
00001835  FA                cli
00001836  6A0D              push byte +0xd
00001838  E922010000        jmp 0x195f
0000183D  FA                cli
0000183E  6A0E              push byte +0xe
00001840  E91A010000        jmp 0x195f
00001845  FA                cli
00001846  6A00              push byte +0x0
00001848  6A0F              push byte +0xf
0000184A  E910010000        jmp 0x195f
0000184F  FA                cli
00001850  6A00              push byte +0x0
00001852  6A10              push byte +0x10
00001854  E906010000        jmp 0x195f
00001859  FA                cli
0000185A  6A00              push byte +0x0
0000185C  6A11              push byte +0x11
0000185E  E9FC000000        jmp 0x195f
00001863  FA                cli
00001864  6A00              push byte +0x0
00001866  6A12              push byte +0x12
00001868  E9F2000000        jmp 0x195f
0000186D  FA                cli
0000186E  6A00              push byte +0x0
00001870  6A13              push byte +0x13
00001872  E9E8000000        jmp 0x195f
00001877  FA                cli
00001878  6A00              push byte +0x0
0000187A  6A14              push byte +0x14
0000187C  E9DE000000        jmp 0x195f
00001881  FA                cli
00001882  6A00              push byte +0x0
00001884  6A15              push byte +0x15
00001886  E9D4000000        jmp 0x195f
0000188B  FA                cli
0000188C  6A00              push byte +0x0
0000188E  6A16              push byte +0x16
00001890  E9CA000000        jmp 0x195f
00001895  FA                cli
00001896  6A00              push byte +0x0
00001898  6A17              push byte +0x17
0000189A  E9C0000000        jmp 0x195f
0000189F  FA                cli
000018A0  6A00              push byte +0x0
000018A2  6A18              push byte +0x18
000018A4  E9B6000000        jmp 0x195f
000018A9  FA                cli
000018AA  6A00              push byte +0x0
000018AC  6A19              push byte +0x19
000018AE  E9AC000000        jmp 0x195f
000018B3  FA                cli
000018B4  6A00              push byte +0x0
000018B6  6A1A              push byte +0x1a
000018B8  E9A2000000        jmp 0x195f
000018BD  FA                cli
000018BE  6A00              push byte +0x0
000018C0  6A1B              push byte +0x1b
000018C2  E998000000        jmp 0x195f
000018C7  FA                cli
000018C8  6A00              push byte +0x0
000018CA  6A1C              push byte +0x1c
000018CC  E98E000000        jmp 0x195f
000018D1  FA                cli
000018D2  6A00              push byte +0x0
000018D4  6A1D              push byte +0x1d
000018D6  E984000000        jmp 0x195f
000018DB  FA                cli
000018DC  6A00              push byte +0x0
000018DE  6A1E              push byte +0x1e
000018E0  EB7D              jmp short 0x195f
000018E2  FA                cli
000018E3  6A00              push byte +0x0
000018E5  6A1F              push byte +0x1f
000018E7  EB76              jmp short 0x195f
000018E9  FA                cli
000018EA  6A00              push byte +0x0
000018EC  6A20              push byte +0x20
000018EE  E98F000000        jmp 0x1982
000018F3  FA                cli
000018F4  6A00              push byte +0x0
000018F6  6A21              push byte +0x21
000018F8  E985000000        jmp 0x1982
000018FD  FA                cli
000018FE  6A00              push byte +0x0
00001900  6A22              push byte +0x22
00001902  EB7E              jmp short 0x1982
00001904  FA                cli
00001905  6A00              push byte +0x0
00001907  6A23              push byte +0x23
00001909  EB77              jmp short 0x1982
0000190B  FA                cli
0000190C  6A00              push byte +0x0
0000190E  6A24              push byte +0x24
00001910  EB70              jmp short 0x1982
00001912  FA                cli
00001913  6A00              push byte +0x0
00001915  6A25              push byte +0x25
00001917  EB69              jmp short 0x1982
00001919  FA                cli
0000191A  6A00              push byte +0x0
0000191C  6A26              push byte +0x26
0000191E  EB62              jmp short 0x1982
00001920  FA                cli
00001921  6A00              push byte +0x0
00001923  6A27              push byte +0x27
00001925  EB5B              jmp short 0x1982
00001927  FA                cli
00001928  6A00              push byte +0x0
0000192A  6A28              push byte +0x28
0000192C  EB54              jmp short 0x1982
0000192E  FA                cli
0000192F  6A00              push byte +0x0
00001931  6A29              push byte +0x29
00001933  EB4D              jmp short 0x1982
00001935  FA                cli
00001936  6A00              push byte +0x0
00001938  6A2A              push byte +0x2a
0000193A  EB46              jmp short 0x1982
0000193C  FA                cli
0000193D  6A00              push byte +0x0
0000193F  6A2B              push byte +0x2b
00001941  EB3F              jmp short 0x1982
00001943  FA                cli
00001944  6A00              push byte +0x0
00001946  6A2C              push byte +0x2c
00001948  EB38              jmp short 0x1982
0000194A  FA                cli
0000194B  6A00              push byte +0x0
0000194D  6A2D              push byte +0x2d
0000194F  EB31              jmp short 0x1982
00001951  FA                cli
00001952  6A00              push byte +0x0
00001954  6A2E              push byte +0x2e
00001956  EB2A              jmp short 0x1982
00001958  FA                cli
00001959  6A00              push byte +0x0
0000195B  6A2F              push byte +0x2f
0000195D  EB23              jmp short 0x1982
0000195F  668CD8            mov ax,ds
00001962  50                push eax
00001963  66B81000          mov ax,0x10
00001967  8ED8              mov ds,eax
00001969  8EC0              mov es,eax
0000196B  8EE0              mov fs,eax
0000196D  8EE8              mov gs,eax
0000196F  E8B6050000        call 0x1f2a
00001974  5B                pop ebx
00001975  8EDB              mov ds,ebx
00001977  8EC3              mov es,ebx
00001979  8EE3              mov fs,ebx
0000197B  8EEB              mov gs,ebx
0000197D  83C408            add esp,byte +0x8
00001980  FB                sti
00001981  CF                iret
00001982  668CD8            mov ax,ds
00001985  50                push eax
00001986  66B81000          mov ax,0x10
0000198A  8ED8              mov ds,eax
0000198C  8EC0              mov es,eax
0000198E  8EE0              mov fs,eax
00001990  8EE8              mov gs,eax
00001992  E813000000        call 0x19aa
00001997  5B                pop ebx
00001998  8EDB              mov ds,ebx
0000199A  8EC3              mov es,ebx
0000199C  8EE3              mov fs,ebx
0000199E  8EEB              mov gs,ebx
000019A0  83C408            add esp,byte +0x8
000019A3  FB                sti
000019A4  CF                iret
000019A5  0F                db 0x0f
000019A6  7361              jnc 0x1a09
000019A8  69005589E583      imul eax,[eax],dword 0x83e58955
000019AE  EC                in al,dx
000019AF  18837D0C2776      sbb [ebx+0x76270c7d],al
000019B5  1283EC086A20      adc al,[ebx+0x206a08ec]
000019BB  68A0000000        push dword 0xa0
000019C0  E8ED050000        call 0x1fb2
000019C5  83C410            add esp,byte +0x10
000019C8  83EC08            sub esp,byte +0x8
000019CB  6A20              push byte +0x20
000019CD  6A20              push byte +0x20
000019CF  E8DE050000        call 0x1fb2
000019D4  83C410            add esp,byte +0x10
000019D7  837D0C21          cmp dword [ebp+0xc],byte +0x21
000019DB  0F8546050000      jnz near 0x1f27
000019E1  83EC0C            sub esp,byte +0xc
000019E4  6A60              push byte +0x60
000019E6  E8E6050000        call 0x1fd1
000019EB  83C410            add esp,byte +0x10
000019EE  8945F4            mov [ebp-0xc],eax
000019F1  837DF439          cmp dword [ebp-0xc],byte +0x39
000019F5  0F8723050000      ja near 0x1f1e
000019FB  8B45F4            mov eax,[ebp-0xc]
000019FE  C1E002            shl eax,byte 0x2
00001A01  0558220000        add eax,0x2258
00001A06  8B00              mov eax,[eax]
00001A08  FFE0              jmp eax
00001A0A  83EC08            sub esp,byte +0x8
00001A0D  6A0F              push byte +0xf
00001A0F  68C4210000        push dword 0x21c4
00001A14  E838060000        call 0x2051
00001A19  83C410            add esp,byte +0x10
00001A1C  E9FE040000        jmp 0x1f1f
00001A21  83EC08            sub esp,byte +0x8
00001A24  6A0F              push byte +0xf
00001A26  68CA210000        push dword 0x21ca
00001A2B  E821060000        call 0x2051
00001A30  83C410            add esp,byte +0x10
00001A33  E9E7040000        jmp 0x1f1f
00001A38  83EC08            sub esp,byte +0x8
00001A3B  6A0F              push byte +0xf
00001A3D  68CE210000        push dword 0x21ce
00001A42  E80A060000        call 0x2051
00001A47  83C410            add esp,byte +0x10
00001A4A  E9D0040000        jmp 0x1f1f
00001A4F  83EC08            sub esp,byte +0x8
00001A52  6A0F              push byte +0xf
00001A54  68D0210000        push dword 0x21d0
00001A59  E8F3050000        call 0x2051
00001A5E  83C410            add esp,byte +0x10
00001A61  E9B9040000        jmp 0x1f1f
00001A66  83EC08            sub esp,byte +0x8
00001A69  6A0F              push byte +0xf
00001A6B  68D2210000        push dword 0x21d2
00001A70  E8DC050000        call 0x2051
00001A75  83C410            add esp,byte +0x10
00001A78  E9A2040000        jmp 0x1f1f
00001A7D  83EC08            sub esp,byte +0x8
00001A80  6A0F              push byte +0xf
00001A82  68D4210000        push dword 0x21d4
00001A87  E8C5050000        call 0x2051
00001A8C  83C410            add esp,byte +0x10
00001A8F  E98B040000        jmp 0x1f1f
00001A94  83EC08            sub esp,byte +0x8
00001A97  6A0F              push byte +0xf
00001A99  68D6210000        push dword 0x21d6
00001A9E  E8AE050000        call 0x2051
00001AA3  83C410            add esp,byte +0x10
00001AA6  E974040000        jmp 0x1f1f
00001AAB  83EC08            sub esp,byte +0x8
00001AAE  6A0F              push byte +0xf
00001AB0  68D8210000        push dword 0x21d8
00001AB5  E897050000        call 0x2051
00001ABA  83C410            add esp,byte +0x10
00001ABD  E95D040000        jmp 0x1f1f
00001AC2  83EC08            sub esp,byte +0x8
00001AC5  6A0F              push byte +0xf
00001AC7  68DA210000        push dword 0x21da
00001ACC  E880050000        call 0x2051
00001AD1  83C410            add esp,byte +0x10
00001AD4  E946040000        jmp 0x1f1f
00001AD9  83EC08            sub esp,byte +0x8
00001ADC  6A0F              push byte +0xf
00001ADE  68DC210000        push dword 0x21dc
00001AE3  E869050000        call 0x2051
00001AE8  83C410            add esp,byte +0x10
00001AEB  E92F040000        jmp 0x1f1f
00001AF0  83EC08            sub esp,byte +0x8
00001AF3  6A0F              push byte +0xf
00001AF5  68DE210000        push dword 0x21de
00001AFA  E852050000        call 0x2051
00001AFF  83C410            add esp,byte +0x10
00001B02  E918040000        jmp 0x1f1f
00001B07  83EC08            sub esp,byte +0x8
00001B0A  6A0F              push byte +0xf
00001B0C  68E0210000        push dword 0x21e0
00001B11  E83B050000        call 0x2051
00001B16  83C410            add esp,byte +0x10
00001B19  E901040000        jmp 0x1f1f
00001B1E  83EC08            sub esp,byte +0x8
00001B21  6A0F              push byte +0xf
00001B23  68E2210000        push dword 0x21e2
00001B28  E824050000        call 0x2051
00001B2D  83C410            add esp,byte +0x10
00001B30  E9EA030000        jmp 0x1f1f
00001B35  83EC08            sub esp,byte +0x8
00001B38  6A0F              push byte +0xf
00001B3A  68E4210000        push dword 0x21e4
00001B3F  E80D050000        call 0x2051
00001B44  83C410            add esp,byte +0x10
00001B47  E9D3030000        jmp 0x1f1f
00001B4C  E8CD070000        call 0x231e
00001B51  E9C9030000        jmp 0x1f1f
00001B56  83EC08            sub esp,byte +0x8
00001B59  6A0F              push byte +0xf
00001B5B  68E6210000        push dword 0x21e6
00001B60  E8EC040000        call 0x2051
00001B65  83C410            add esp,byte +0x10
00001B68  E9B2030000        jmp 0x1f1f
00001B6D  83EC08            sub esp,byte +0x8
00001B70  6A0F              push byte +0xf
00001B72  68EA210000        push dword 0x21ea
00001B77  E8D5040000        call 0x2051
00001B7C  83C410            add esp,byte +0x10
00001B7F  E99B030000        jmp 0x1f1f
00001B84  83EC08            sub esp,byte +0x8
00001B87  6A0F              push byte +0xf
00001B89  68EC210000        push dword 0x21ec
00001B8E  E8BE040000        call 0x2051
00001B93  83C410            add esp,byte +0x10
00001B96  E984030000        jmp 0x1f1f
00001B9B  83EC08            sub esp,byte +0x8
00001B9E  6A0F              push byte +0xf
00001BA0  68EE210000        push dword 0x21ee
00001BA5  E8A7040000        call 0x2051
00001BAA  83C410            add esp,byte +0x10
00001BAD  E96D030000        jmp 0x1f1f
00001BB2  83EC08            sub esp,byte +0x8
00001BB5  6A0F              push byte +0xf
00001BB7  68F0210000        push dword 0x21f0
00001BBC  E890040000        call 0x2051
00001BC1  83C410            add esp,byte +0x10
00001BC4  E956030000        jmp 0x1f1f
00001BC9  83EC08            sub esp,byte +0x8
00001BCC  6A0F              push byte +0xf
00001BCE  68F2210000        push dword 0x21f2
00001BD3  E879040000        call 0x2051
00001BD8  83C410            add esp,byte +0x10
00001BDB  E93F030000        jmp 0x1f1f
00001BE0  83EC08            sub esp,byte +0x8
00001BE3  6A0F              push byte +0xf
00001BE5  68F4210000        push dword 0x21f4
00001BEA  E862040000        call 0x2051
00001BEF  83C410            add esp,byte +0x10
00001BF2  E928030000        jmp 0x1f1f
00001BF7  83EC08            sub esp,byte +0x8
00001BFA  6A0F              push byte +0xf
00001BFC  68F6210000        push dword 0x21f6
00001C01  E84B040000        call 0x2051
00001C06  83C410            add esp,byte +0x10
00001C09  E911030000        jmp 0x1f1f
00001C0E  83EC08            sub esp,byte +0x8
00001C11  6A0F              push byte +0xf
00001C13  68F8210000        push dword 0x21f8
00001C18  E834040000        call 0x2051
00001C1D  83C410            add esp,byte +0x10
00001C20  E9FA020000        jmp 0x1f1f
00001C25  83EC08            sub esp,byte +0x8
00001C28  6A0F              push byte +0xf
00001C2A  68FA210000        push dword 0x21fa
00001C2F  E81D040000        call 0x2051
00001C34  83C410            add esp,byte +0x10
00001C37  E9E3020000        jmp 0x1f1f
00001C3C  83EC08            sub esp,byte +0x8
00001C3F  6A0F              push byte +0xf
00001C41  68FC210000        push dword 0x21fc
00001C46  E806040000        call 0x2051
00001C4B  83C410            add esp,byte +0x10
00001C4E  E9CC020000        jmp 0x1f1f
00001C53  83EC08            sub esp,byte +0x8
00001C56  6A0F              push byte +0xf
00001C58  68FE210000        push dword 0x21fe
00001C5D  E8EF030000        call 0x2051
00001C62  83C410            add esp,byte +0x10
00001C65  E9B5020000        jmp 0x1f1f
00001C6A  83EC08            sub esp,byte +0x8
00001C6D  6A0F              push byte +0xf
00001C6F  6800220000        push dword 0x2200
00001C74  E8D8030000        call 0x2051
00001C79  83C410            add esp,byte +0x10
00001C7C  E99E020000        jmp 0x1f1f
00001C81  83EC08            sub esp,byte +0x8
00001C84  6A0F              push byte +0xf
00001C86  6802220000        push dword 0x2202
00001C8B  E8C1030000        call 0x2051
00001C90  83C410            add esp,byte +0x10
00001C93  E987020000        jmp 0x1f1f
00001C98  83EC08            sub esp,byte +0x8
00001C9B  6A0F              push byte +0xf
00001C9D  6804220000        push dword 0x2204
00001CA2  E8AA030000        call 0x2051
00001CA7  83C410            add esp,byte +0x10
00001CAA  E970020000        jmp 0x1f1f
00001CAF  83EC08            sub esp,byte +0x8
00001CB2  6A0F              push byte +0xf
00001CB4  680A220000        push dword 0x220a
00001CB9  E893030000        call 0x2051
00001CBE  83C410            add esp,byte +0x10
00001CC1  E959020000        jmp 0x1f1f
00001CC6  83EC08            sub esp,byte +0x8
00001CC9  6A0F              push byte +0xf
00001CCB  680C220000        push dword 0x220c
00001CD0  E87C030000        call 0x2051
00001CD5  83C410            add esp,byte +0x10
00001CD8  E942020000        jmp 0x1f1f
00001CDD  83EC08            sub esp,byte +0x8
00001CE0  6A0F              push byte +0xf
00001CE2  680E220000        push dword 0x220e
00001CE7  E865030000        call 0x2051
00001CEC  83C410            add esp,byte +0x10
00001CEF  E92B020000        jmp 0x1f1f
00001CF4  83EC08            sub esp,byte +0x8
00001CF7  6A0F              push byte +0xf
00001CF9  6810220000        push dword 0x2210
00001CFE  E84E030000        call 0x2051
00001D03  83C410            add esp,byte +0x10
00001D06  E914020000        jmp 0x1f1f
00001D0B  83EC08            sub esp,byte +0x8
00001D0E  6A0F              push byte +0xf
00001D10  6812220000        push dword 0x2212
00001D15  E837030000        call 0x2051
00001D1A  83C410            add esp,byte +0x10
00001D1D  E9FD010000        jmp 0x1f1f
00001D22  83EC08            sub esp,byte +0x8
00001D25  6A0F              push byte +0xf
00001D27  6814220000        push dword 0x2214
00001D2C  E820030000        call 0x2051
00001D31  83C410            add esp,byte +0x10
00001D34  E9E6010000        jmp 0x1f1f
00001D39  83EC08            sub esp,byte +0x8
00001D3C  6A0F              push byte +0xf
00001D3E  6816220000        push dword 0x2216
00001D43  E809030000        call 0x2051
00001D48  83C410            add esp,byte +0x10
00001D4B  E9CF010000        jmp 0x1f1f
00001D50  83EC08            sub esp,byte +0x8
00001D53  6A0F              push byte +0xf
00001D55  6818220000        push dword 0x2218
00001D5A  E8F2020000        call 0x2051
00001D5F  83C410            add esp,byte +0x10
00001D62  E9B8010000        jmp 0x1f1f
00001D67  83EC08            sub esp,byte +0x8
00001D6A  6A0F              push byte +0xf
00001D6C  681A220000        push dword 0x221a
00001D71  E8DB020000        call 0x2051
00001D76  83C410            add esp,byte +0x10
00001D79  E9A1010000        jmp 0x1f1f
00001D7E  83EC08            sub esp,byte +0x8
00001D81  6A0F              push byte +0xf
00001D83  681C220000        push dword 0x221c
00001D88  E8C4020000        call 0x2051
00001D8D  83C410            add esp,byte +0x10
00001D90  E98A010000        jmp 0x1f1f
00001D95  83EC08            sub esp,byte +0x8
00001D98  6A0F              push byte +0xf
00001D9A  681E220000        push dword 0x221e
00001D9F  E8AD020000        call 0x2051
00001DA4  83C410            add esp,byte +0x10
00001DA7  E973010000        jmp 0x1f1f
00001DAC  83EC08            sub esp,byte +0x8
00001DAF  6A0F              push byte +0xf
00001DB1  6820220000        push dword 0x2220
00001DB6  E896020000        call 0x2051
00001DBB  83C410            add esp,byte +0x10
00001DBE  E95C010000        jmp 0x1f1f
00001DC3  83EC08            sub esp,byte +0x8
00001DC6  6A0F              push byte +0xf
00001DC8  6822220000        push dword 0x2222
00001DCD  E87F020000        call 0x2051
00001DD2  83C410            add esp,byte +0x10
00001DD5  E945010000        jmp 0x1f1f
00001DDA  83EC08            sub esp,byte +0x8
00001DDD  6A0F              push byte +0xf
00001DDF  6829220000        push dword 0x2229
00001DE4  E868020000        call 0x2051
00001DE9  83C410            add esp,byte +0x10
00001DEC  E92E010000        jmp 0x1f1f
00001DF1  83EC08            sub esp,byte +0x8
00001DF4  6A0F              push byte +0xf
00001DF6  682B220000        push dword 0x222b
00001DFB  E851020000        call 0x2051
00001E00  83C410            add esp,byte +0x10
00001E03  E917010000        jmp 0x1f1f
00001E08  83EC08            sub esp,byte +0x8
00001E0B  6A0F              push byte +0xf
00001E0D  682D220000        push dword 0x222d
00001E12  E83A020000        call 0x2051
00001E17  83C410            add esp,byte +0x10
00001E1A  E900010000        jmp 0x1f1f
00001E1F  83EC08            sub esp,byte +0x8
00001E22  6A0F              push byte +0xf
00001E24  682F220000        push dword 0x222f
00001E29  E823020000        call 0x2051
00001E2E  83C410            add esp,byte +0x10
00001E31  E9E9000000        jmp 0x1f1f
00001E36  83EC08            sub esp,byte +0x8
00001E39  6A0F              push byte +0xf
00001E3B  6831220000        push dword 0x2231
00001E40  E80C020000        call 0x2051
00001E45  83C410            add esp,byte +0x10
00001E48  E9D2000000        jmp 0x1f1f
00001E4D  83EC08            sub esp,byte +0x8
00001E50  6A0F              push byte +0xf
00001E52  6833220000        push dword 0x2233
00001E57  E8F5010000        call 0x2051
00001E5C  83C410            add esp,byte +0x10
00001E5F  E9BB000000        jmp 0x1f1f
00001E64  83EC08            sub esp,byte +0x8
00001E67  6A0F              push byte +0xf
00001E69  6835220000        push dword 0x2235
00001E6E  E8DE010000        call 0x2051
00001E73  83C410            add esp,byte +0x10
00001E76  E9A4000000        jmp 0x1f1f
00001E7B  83EC08            sub esp,byte +0x8
00001E7E  6A0F              push byte +0xf
00001E80  6837220000        push dword 0x2237
00001E85  E8C7010000        call 0x2051
00001E8A  83C410            add esp,byte +0x10
00001E8D  E98D000000        jmp 0x1f1f
00001E92  83EC08            sub esp,byte +0x8
00001E95  6A0F              push byte +0xf
00001E97  6839220000        push dword 0x2239
00001E9C  E8B0010000        call 0x2051
00001EA1  83C410            add esp,byte +0x10
00001EA4  EB79              jmp short 0x1f1f
00001EA6  83EC08            sub esp,byte +0x8
00001EA9  6A0F              push byte +0xf
00001EAB  683B220000        push dword 0x223b
00001EB0  E89C010000        call 0x2051
00001EB5  83C410            add esp,byte +0x10
00001EB8  EB65              jmp short 0x1f1f
00001EBA  83EC08            sub esp,byte +0x8
00001EBD  6A0F              push byte +0xf
00001EBF  683D220000        push dword 0x223d
00001EC4  E888010000        call 0x2051
00001EC9  83C410            add esp,byte +0x10
00001ECC  EB51              jmp short 0x1f1f
00001ECE  83EC08            sub esp,byte +0x8
00001ED1  6A0F              push byte +0xf
00001ED3  683F220000        push dword 0x223f
00001ED8  E874010000        call 0x2051
00001EDD  83C410            add esp,byte +0x10
00001EE0  EB3D              jmp short 0x1f1f
00001EE2  83EC08            sub esp,byte +0x8
00001EE5  6A0F              push byte +0xf
00001EE7  6846220000        push dword 0x2246
00001EEC  E860010000        call 0x2051
00001EF1  83C410            add esp,byte +0x10
00001EF4  EB29              jmp short 0x1f1f
00001EF6  83EC08            sub esp,byte +0x8
00001EF9  6A0F              push byte +0xf
00001EFB  684F220000        push dword 0x224f
00001F00  E84C010000        call 0x2051
00001F05  83C410            add esp,byte +0x10
00001F08  EB15              jmp short 0x1f1f
00001F0A  83EC08            sub esp,byte +0x8
00001F0D  6A0F              push byte +0xf
00001F0F  6854220000        push dword 0x2254
00001F14  E838010000        call 0x2051
00001F19  83C410            add esp,byte +0x10
00001F1C  EB01              jmp short 0x1f1f
00001F1E  90                nop
00001F1F  8B45F4            mov eax,[ebp-0xc]
00001F22  A300400000        mov [0x4000],eax
00001F27  90                nop
00001F28  C9                leave
00001F29  C3                ret
00001F2A  55                push ebp
00001F2B  89E5              mov ebp,esp
00001F2D  83EC08            sub esp,byte +0x8
00001F30  83EC08            sub esp,byte +0x8
00001F33  6A1F              push byte +0x1f
00001F35  6840230000        push dword 0x2340
00001F3A  E812010000        call 0x2051
00001F3F  83C410            add esp,byte +0x10
00001F42  90                nop
00001F43  C9                leave
00001F44  C3                ret
00001F45  55                push ebp
00001F46  89E5              mov ebp,esp
00001F48  83EC18            sub esp,byte +0x18
00001F4B  E89E000000        call 0x1fee
00001F50  83EC08            sub esp,byte +0x8
00001F53  6A02              push byte +0x2
00001F55  6843230000        push dword 0x2343
00001F5A  E8F2000000        call 0x2051
00001F5F  83C410            add esp,byte +0x10
00001F62  C745F400000000    mov dword [ebp-0xc],0x0
00001F69  FB                sti
00001F6A  EB26              jmp short 0x1f92
00001F6C  A100400000        mov eax,[0x4000]
00001F71  83F81C            cmp eax,byte +0x1c
00001F74  751C              jnz 0x1f92
00001F76  83EC08            sub esp,byte +0x8
00001F79  6A02              push byte +0x2
00001F7B  6843230000        push dword 0x2343
00001F80  E8CC000000        call 0x2051
00001F85  83C410            add esp,byte +0x10
00001F88  C705004000000000  mov dword [dword 0x4000],0x0
         -0000
00001F92  A100400000        mov eax,[0x4000]
00001F97  83F803            cmp eax,byte +0x3
00001F9A  75D0              jnz 0x1f6c
00001F9C  A128480000        mov eax,[0x4828]
00001FA1  83EC08            sub esp,byte +0x8
00001FA4  6A0F              push byte +0xf
00001FA6  50                push eax
00001FA7  E8A5000000        call 0x2051
00001FAC  83C410            add esp,byte +0x10
00001FAF  90                nop
00001FB0  C9                leave
00001FB1  C3                ret
00001FB2  55                push ebp
00001FB3  89E5              mov ebp,esp
00001FB5  83EC08            sub esp,byte +0x8
00001FB8  8B5508            mov edx,[ebp+0x8]
00001FBB  8B450C            mov eax,[ebp+0xc]
00001FBE  668955FC          mov [ebp-0x4],dx
00001FC2  8845F8            mov [ebp-0x8],al
00001FC5  0FB645F8          movzx eax,byte [ebp-0x8]
00001FC9  0FB755FC          movzx edx,word [ebp-0x4]
00001FCD  EE                out dx,al
00001FCE  90                nop
00001FCF  C9                leave
00001FD0  C3                ret
00001FD1  55                push ebp
00001FD2  89E5              mov ebp,esp
00001FD4  83EC14            sub esp,byte +0x14
00001FD7  8B4508            mov eax,[ebp+0x8]
00001FDA  668945EC          mov [ebp-0x14],ax
00001FDE  0FB745EC          movzx eax,word [ebp-0x14]
00001FE2  89C2              mov edx,eax
00001FE4  EC                in al,dx
00001FE5  8845FF            mov [ebp-0x1],al
00001FE8  0FB645FF          movzx eax,byte [ebp-0x1]
00001FEC  C9                leave
00001FED  C3                ret
00001FEE  55                push ebp
00001FEF  89E5              mov ebp,esp
00001FF1  83EC18            sub esp,byte +0x18
00001FF4  C745EC00800B00    mov dword [ebp-0x14],0xb8000
00001FFB  C745F019000000    mov dword [ebp-0x10],0x19
00002002  C745F450000000    mov dword [ebp-0xc],0x50
00002009  C745E800000000    mov dword [ebp-0x18],0x0
00002010  EB23              jmp short 0x2035
00002012  8B45E8            mov eax,[ebp-0x18]
00002015  01C0              add eax,eax
00002017  89C2              mov edx,eax
00002019  8B45EC            mov eax,[ebp-0x14]
0000201C  01D0              add eax,edx
0000201E  C60020            mov byte [eax],0x20
00002021  8B45E8            mov eax,[ebp-0x18]
00002024  01C0              add eax,eax
00002026  8D5001            lea edx,[eax+0x1]
00002029  8B45EC            mov eax,[ebp-0x14]
0000202C  01D0              add eax,edx
0000202E  C6000F            mov byte [eax],0xf
00002031  8345E801          add dword [ebp-0x18],byte +0x1
00002035  8B45F0            mov eax,[ebp-0x10]
00002038  0FAF45F4          imul eax,[ebp-0xc]
0000203C  3945E8            cmp [ebp-0x18],eax
0000203F  7CD1              jl 0x2012
00002041  83EC0C            sub esp,byte +0xc
00002044  6A00              push byte +0x0
00002046  E83B020000        call 0x2286
0000204B  83C410            add esp,byte +0x10
0000204E  90                nop
0000204F  C9                leave
00002050  C3                ret
00002051  55                push ebp
00002052  89E5              mov ebp,esp
00002054  83EC38            sub esp,byte +0x38
00002057  8B450C            mov eax,[ebp+0xc]
0000205A  8845D4            mov [ebp-0x2c],al
0000205D  C745F400800B00    mov dword [ebp-0xc],0xb8000
00002064  E8C8010000        call 0x2231
00002069  8945DC            mov [ebp-0x24],eax
0000206C  C745E000000000    mov dword [ebp-0x20],0x0
00002073  E995010000        jmp 0x220d
00002078  8B55E0            mov edx,[ebp-0x20]
0000207B  8B4508            mov eax,[ebp+0x8]
0000207E  01D0              add eax,edx
00002080  0FB600            movzx eax,byte [eax]
00002083  3C0A              cmp al,0xa
00002085  0F85C7000000      jnz near 0x2152
0000208B  8B4DDC            mov ecx,[ebp-0x24]
0000208E  BA67666666        mov edx,0x66666667
00002093  89C8              mov eax,ecx
00002095  F7EA              imul edx
00002097  C1FA06            sar edx,byte 0x6
0000209A  89C8              mov eax,ecx
0000209C  C1F81F            sar eax,byte 0x1f
0000209F  29C2              sub edx,eax
000020A1  89D0              mov eax,edx
000020A3  C1E002            shl eax,byte 0x2
000020A6  01D0              add eax,edx
000020A8  C1E005            shl eax,byte 0x5
000020AB  29C1              sub ecx,eax
000020AD  89CA              mov edx,ecx
000020AF  89D0              mov eax,edx
000020B1  C1E81F            shr eax,byte 0x1f
000020B4  01D0              add eax,edx
000020B6  D1F8              sar eax,1
000020B8  83E80E            sub eax,byte +0xe
000020BB  8945E4            mov [ebp-0x1c],eax
000020BE  8B1528480000      mov edx,[dword 0x4828]
000020C4  8B45E4            mov eax,[ebp-0x1c]
000020C7  01D0              add eax,edx
000020C9  C60000            mov byte [eax],0x0
000020CC  8B45DC            mov eax,[ebp-0x24]
000020CF  8945E8            mov [ebp-0x18],eax
000020D2  836DE802          sub dword [ebp-0x18],byte +0x2
000020D6  8B55E8            mov edx,[ebp-0x18]
000020D9  8B45F4            mov eax,[ebp-0xc]
000020DC  01D0              add eax,edx
000020DE  8B1528480000      mov edx,[dword 0x4828]
000020E4  8B4DE4            mov ecx,[ebp-0x1c]
000020E7  83E901            sub ecx,byte +0x1
000020EA  01CA              add edx,ecx
000020EC  0FB600            movzx eax,byte [eax]
000020EF  8802              mov [edx],al
000020F1  836DE401          sub dword [ebp-0x1c],byte +0x1
000020F5  8B4DE8            mov ecx,[ebp-0x18]
000020F8  BA67666666        mov edx,0x66666667
000020FD  89C8              mov eax,ecx
000020FF  F7EA              imul edx
00002101  C1FA06            sar edx,byte 0x6
00002104  89C8              mov eax,ecx
00002106  C1F81F            sar eax,byte 0x1f
00002109  29C2              sub edx,eax
0000210B  89D0              mov eax,edx
0000210D  C1E002            shl eax,byte 0x2
00002110  01D0              add eax,edx
00002112  C1E005            shl eax,byte 0x5
00002115  29C1              sub ecx,eax
00002117  89CA              mov edx,ecx
00002119  83FA1C            cmp edx,byte +0x1c
0000211C  75B4              jnz 0x20d2
0000211E  8B4DDC            mov ecx,[ebp-0x24]
00002121  BA67666666        mov edx,0x66666667
00002126  89C8              mov eax,ecx
00002128  F7EA              imul edx
0000212A  C1FA06            sar edx,byte 0x6
0000212D  89C8              mov eax,ecx
0000212F  C1F81F            sar eax,byte 0x1f
00002132  29C2              sub edx,eax
00002134  89D0              mov eax,edx
00002136  C1E002            shl eax,byte 0x2
00002139  01D0              add eax,edx
0000213B  C1E005            shl eax,byte 0x5
0000213E  29C1              sub ecx,eax
00002140  89CA              mov edx,ecx
00002142  B8A0000000        mov eax,0xa0
00002147  29D0              sub eax,edx
00002149  0145DC            add [ebp-0x24],eax
0000214C  8345E001          add dword [ebp-0x20],byte +0x1
00002150  EB2E              jmp short 0x2180
00002152  8B55E0            mov edx,[ebp-0x20]
00002155  8B4508            mov eax,[ebp+0x8]
00002158  01D0              add eax,edx
0000215A  8B4DDC            mov ecx,[ebp-0x24]
0000215D  8B55F4            mov edx,[ebp-0xc]
00002160  01CA              add edx,ecx
00002162  0FB600            movzx eax,byte [eax]
00002165  8802              mov [edx],al
00002167  8B45DC            mov eax,[ebp-0x24]
0000216A  8D5001            lea edx,[eax+0x1]
0000216D  8B45F4            mov eax,[ebp-0xc]
00002170  01C2              add edx,eax
00002172  0FB645D4          movzx eax,byte [ebp-0x2c]
00002176  8802              mov [edx],al
00002178  8345E001          add dword [ebp-0x20],byte +0x1
0000217C  8345DC02          add dword [ebp-0x24],byte +0x2
00002180  817DDC9E0F0000    cmp dword [ebp-0x24],0xf9e
00002187  0F8E80000000      jng near 0x220d
0000218D  EB2F              jmp short 0x21be
0000218F  8B45EC            mov eax,[ebp-0x14]
00002192  8D9060FFFFFF      lea edx,[eax-0xa0]
00002198  8B45F4            mov eax,[ebp-0xc]
0000219B  01C2              add edx,eax
0000219D  8B4DEC            mov ecx,[ebp-0x14]
000021A0  8B45F4            mov eax,[ebp-0xc]
000021A3  01C8              add eax,ecx
000021A5  83EC04            sub esp,byte +0x4
000021A8  68A0000000        push dword 0xa0
000021AD  52                push edx
000021AE  50                push eax
000021AF  E837010000        call 0x22eb
000021B4  83C410            add esp,byte +0x10
000021B7  8145ECA0000000    add dword [ebp-0x14],0xa0
000021BE  8B45DC            mov eax,[ebp-0x24]
000021C1  2DA0000000        sub eax,0xa0
000021C6  3945EC            cmp [ebp-0x14],eax
000021C9  7EC4              jng 0x218f
000021CB  816DDCA0000000    sub dword [ebp-0x24],0xa0
000021D2  C745F000000000    mov dword [ebp-0x10],0x0
000021D9  EB29              jmp short 0x2204
000021DB  8B55DC            mov edx,[ebp-0x24]
000021DE  8B45F0            mov eax,[ebp-0x10]
000021E1  01D0              add eax,edx
000021E3  89C2              mov edx,eax
000021E5  8B45F4            mov eax,[ebp-0xc]
000021E8  01D0              add eax,edx
000021EA  C60020            mov byte [eax],0x20
000021ED  8B55DC            mov edx,[ebp-0x24]
000021F0  8B45F0            mov eax,[ebp-0x10]
000021F3  01D0              add eax,edx
000021F5  8D5001            lea edx,[eax+0x1]
000021F8  8B45F4            mov eax,[ebp-0xc]
000021FB  01D0              add eax,edx
000021FD  C6000F            mov byte [eax],0xf
00002200  8345F002          add dword [ebp-0x10],byte +0x2
00002204  817DF09F000000    cmp dword [ebp-0x10],0x9f
0000220B  7ECE              jng 0x21db
0000220D  8B55E0            mov edx,[ebp-0x20]
00002210  8B4508            mov eax,[ebp+0x8]
00002213  01D0              add eax,edx
00002215  0FB600            movzx eax,byte [eax]
00002218  84C0              test al,al
0000221A  0F8558FEFFFF      jnz near 0x2078
00002220  83EC0C            sub esp,byte +0xc
00002223  FF75DC            push dword [ebp-0x24]
00002226  E85B000000        call 0x2286
0000222B  83C410            add esp,byte +0x10
0000222E  90                nop
0000222F  C9                leave
00002230  C3                ret
00002231  55                push ebp
00002232  89E5              mov ebp,esp
00002234  83EC10            sub esp,byte +0x10
00002237  6A0E              push byte +0xe
00002239  68D4030000        push dword 0x3d4
0000223E  E86FFDFFFF        call 0x1fb2
00002243  83C408            add esp,byte +0x8
00002246  68D5030000        push dword 0x3d5
0000224B  E881FDFFFF        call 0x1fd1
00002250  83C404            add esp,byte +0x4
00002253  0FB6C0            movzx eax,al
00002256  8945FC            mov [ebp-0x4],eax
00002259  C165FC08          shl dword [ebp-0x4],byte 0x8
0000225D  6A0F              push byte +0xf
0000225F  68D4030000        push dword 0x3d4
00002264  E849FDFFFF        call 0x1fb2
00002269  83C408            add esp,byte +0x8
0000226C  68D5030000        push dword 0x3d5
00002271  E85BFDFFFF        call 0x1fd1
00002276  83C404            add esp,byte +0x4
00002279  0FB6C0            movzx eax,al
0000227C  0145FC            add [ebp-0x4],eax
0000227F  8B45FC            mov eax,[ebp-0x4]
00002282  01C0              add eax,eax
00002284  C9                leave
00002285  C3                ret
00002286  55                push ebp
00002287  89E5              mov ebp,esp
00002289  8B4508            mov eax,[ebp+0x8]
0000228C  89C2              mov edx,eax
0000228E  C1EA1F            shr edx,byte 0x1f
00002291  01D0              add eax,edx
00002293  D1F8              sar eax,1
00002295  894508            mov [ebp+0x8],eax
00002298  6A0E              push byte +0xe
0000229A  68D4030000        push dword 0x3d4
0000229F  E80EFDFFFF        call 0x1fb2
000022A4  83C408            add esp,byte +0x8
000022A7  8B4508            mov eax,[ebp+0x8]
000022AA  C1F808            sar eax,byte 0x8
000022AD  0FB6C0            movzx eax,al
000022B0  50                push eax
000022B1  68D5030000        push dword 0x3d5
000022B6  E8F7FCFFFF        call 0x1fb2
000022BB  83C408            add esp,byte +0x8
000022BE  6A0F              push byte +0xf
000022C0  68D4030000        push dword 0x3d4
000022C5  E8E8FCFFFF        call 0x1fb2
000022CA  83C408            add esp,byte +0x8
000022CD  816508FF000000    and dword [ebp+0x8],0xff
000022D4  8B4508            mov eax,[ebp+0x8]
000022D7  0FB6C0            movzx eax,al
000022DA  50                push eax
000022DB  68D5030000        push dword 0x3d5
000022E0  E8CDFCFFFF        call 0x1fb2
000022E5  83C408            add esp,byte +0x8
000022E8  90                nop
000022E9  C9                leave
000022EA  C3                ret
000022EB  55                push ebp
000022EC  89E5              mov ebp,esp
000022EE  83EC10            sub esp,byte +0x10
000022F1  C745FC00000000    mov dword [ebp-0x4],0x0
000022F8  EB19              jmp short 0x2313
000022FA  8B55FC            mov edx,[ebp-0x4]
000022FD  8B4508            mov eax,[ebp+0x8]
00002300  01D0              add eax,edx
00002302  8B4DFC            mov ecx,[ebp-0x4]
00002305  8B550C            mov edx,[ebp+0xc]
00002308  01CA              add edx,ecx
0000230A  0FB600            movzx eax,byte [eax]
0000230D  8802              mov [edx],al
0000230F  8345FC01          add dword [ebp-0x4],byte +0x1
00002313  8B45FC            mov eax,[ebp-0x4]
00002316  3B4510            cmp eax,[ebp+0x10]
00002319  7CDF              jl 0x22fa
0000231B  90                nop
0000231C  C9                leave
0000231D  C3                ret
0000231E  55                push ebp
0000231F  89E5              mov ebp,esp
00002321  83EC10            sub esp,byte +0x10
00002324  C745F800800B00    mov dword [ebp-0x8],0xb8000
0000232B  E801FFFFFF        call 0x2231
00002330  8945FC            mov [ebp-0x4],eax
00002333  8B45FC            mov eax,[ebp-0x4]
00002336  8D50FE            lea edx,[eax-0x2]
00002339  8B45F8            mov eax,[ebp-0x8]
0000233C  01D0              add eax,edx
0000233E  C60020            mov byte [eax],0x20
00002341  8B45FC            mov eax,[ebp-0x4]
00002344  8D50FF            lea edx,[eax-0x1]
00002347  8B45F8            mov eax,[ebp-0x8]
0000234A  01D0              add eax,edx
0000234C  C6000F            mov byte [eax],0xf
0000234F  836DFC02          sub dword [ebp-0x4],byte +0x2
00002353  FF75FC            push dword [ebp-0x4]
00002356  E82BFFFFFF        call 0x2286
0000235B  83C404            add esp,byte +0x4
0000235E  90                nop
0000235F  C9                leave
00002360  C3                ret
00002361  55                push ebp
00002362  89E5              mov ebp,esp
00002364  83EC10            sub esp,byte +0x10
00002367  C745FC00000000    mov dword [ebp-0x4],0x0
0000236E  EB13              jmp short 0x2383
00002370  8B55FC            mov edx,[ebp-0x4]
00002373  8B4508            mov eax,[ebp+0x8]
00002376  01D0              add eax,edx
00002378  0FB600            movzx eax,byte [eax]
0000237B  84C0              test al,al
0000237D  7420              jz 0x239f
0000237F  8345FC01          add dword [ebp-0x4],byte +0x1
00002383  8B55FC            mov edx,[ebp-0x4]
00002386  8B4508            mov eax,[ebp+0x8]
00002389  01D0              add eax,edx
0000238B  0FB610            movzx edx,byte [eax]
0000238E  8B4DFC            mov ecx,[ebp-0x4]
00002391  8B450C            mov eax,[ebp+0xc]
00002394  01C8              add eax,ecx
00002396  0FB600            movzx eax,byte [eax]
00002399  38C2              cmp dl,al
0000239B  74D3              jz 0x2370
0000239D  EB01              jmp short 0x23a0
0000239F  90                nop
000023A0  8B55FC            mov edx,[ebp-0x4]
000023A3  8B4508            mov eax,[ebp+0x8]
000023A6  01D0              add eax,edx
000023A8  0FB600            movzx eax,byte [eax]
000023AB  0FBED0            movsx edx,al
000023AE  8B4DFC            mov ecx,[ebp-0x4]
000023B1  8B450C            mov eax,[ebp+0xc]
000023B4  01C8              add eax,ecx
000023B6  0FB600            movzx eax,byte [eax]
000023B9  0FBEC0            movsx eax,al
000023BC  29C2              sub edx,eax
000023BE  89D0              mov eax,edx
000023C0  C9                leave
000023C1  C3                ret
000023C2  0000              add [eax],al
000023C4  45                inc ebp
000023C5  52                push edx
000023C6  52                push edx
000023C7  4F                dec edi
000023C8  52                push edx
000023C9  004553            add [ebp+0x53],al
000023CC  43                inc ebx
000023CD  0031              add [ecx],dh
000023CF  0032              add [edx],dh
000023D1  0033              add [ebx],dh
000023D3  003400            add [eax+eax],dh
000023D6  3500360037        xor eax,0x37003600
000023DB  0038              add [eax],bh
000023DD  0039              add [ecx],bh
000023DF  0030              add [eax],dh
000023E1  002D002B0054      add [dword 0x54002b00],ch
000023E7  61                popa
000023E8  6200              bound eax,[eax]
000023EA  51                push ecx
000023EB  005700            add [edi+0x0],dl
000023EE  45                inc ebp
000023EF  005200            add [edx+0x0],dl
000023F2  54                push esp
000023F3  005900            add [ecx+0x0],bl
000023F6  55                push ebp
000023F7  004900            add [ecx+0x0],cl
000023FA  4F                dec edi
000023FB  005000            add [eax+0x0],dl
000023FE  5B                pop ebx
000023FF  005D00            add [ebp+0x0],bl
00002402  0A00              or al,[eax]
00002404  4C                dec esp
00002405  43                inc ebx
00002406  7472              jz 0x247a
00002408  6C                insb
00002409  004100            add [ecx+0x0],al
0000240C  53                push ebx
0000240D  00440046          add [eax+eax+0x46],al
00002411  004700            add [edi+0x0],al
00002414  48                dec eax
00002415  004A00            add [edx+0x0],cl
00002418  4B                dec ebx
00002419  004C003B          add [eax+eax+0x3b],cl
0000241D  0027              add [edi],ah
0000241F  006000            add [eax+0x0],ah
00002422  4C                dec esp
00002423  53                push ebx
00002424  6869667400        push dword 0x746669
00002429  5C                pop esp
0000242A  005A00            add [edx+0x0],bl
0000242D  58                pop eax
0000242E  004300            add [ebx+0x0],al
00002431  56                push esi
00002432  004200            add [edx+0x0],al
00002435  4E                dec esi
00002436  004D00            add [ebp+0x0],cl
00002439  2C00              sub al,0x0
0000243B  2E002F            add [cs:edi],ch
0000243E  005273            add [edx+0x73],dl
00002441  6869667400        push dword 0x746669
00002446  4B                dec ebx
00002447  657970            gs jns 0x24ba
0000244A  61                popa
0000244B  64202A            and [fs:edx],ch
0000244E  004C416C          add [ecx+eax*2+0x6c],cl
00002452  7400              jz 0x2454
00002454  2000              and [eax],al
00002456  0000              add [eax],al
00002458  0A18              or bl,[eax]
0000245A  0000              add [eax],al
0000245C  2118              and [eax],ebx
0000245E  0000              add [eax],al
00002460  3818              cmp [eax],bl
00002462  0000              add [eax],al
00002464  4F                dec edi
00002465  1800              sbb [eax],al
00002467  006618            add [esi+0x18],ah
0000246A  0000              add [eax],al
0000246C  7D18              jnl 0x2486
0000246E  0000              add [eax],al
00002470  94                xchg eax,esp
00002471  1800              sbb [eax],al
00002473  00AB180000C2      add [ebx-0x3dffffe8],ch
00002479  1800              sbb [eax],al
0000247B  00D9              add cl,bl
0000247D  1800              sbb [eax],al
0000247F  00F0              add al,dh
00002481  1800              sbb [eax],al
00002483  0007              add [edi],al
00002485  1900              sbb [eax],eax
00002487  001E              add [esi],bl
00002489  1900              sbb [eax],eax
0000248B  00351900004C      add [dword 0x4c000019],dh
00002491  1900              sbb [eax],eax
00002493  005619            add [esi+0x19],dl
00002496  0000              add [eax],al
00002498  6D                insd
00002499  1900              sbb [eax],eax
0000249B  00841900009B19    add [ecx+ebx+0x199b0000],al
000024A2  0000              add [eax],al
000024A4  B219              mov dl,0x19
000024A6  0000              add [eax],al
000024A8  C9                leave
000024A9  1900              sbb [eax],eax
000024AB  00E0              add al,ah
000024AD  1900              sbb [eax],eax
000024AF  00F7              add bh,dh
000024B1  1900              sbb [eax],eax
000024B3  000E              add [esi],cl
000024B5  1A00              sbb al,[eax]
000024B7  00251A00003C      add [dword 0x3c00001a],ah
000024BD  1A00              sbb al,[eax]
000024BF  00531A            add [ebx+0x1a],dl
000024C2  0000              add [eax],al
000024C4  6A1A              push byte +0x1a
000024C6  0000              add [eax],al
000024C8  811A0000981A      sbb dword [edx],0x1a980000
000024CE  0000              add [eax],al
000024D0  AF                scasd
000024D1  1A00              sbb al,[eax]
000024D3  00C6              add dh,al
000024D5  1A00              sbb al,[eax]
000024D7  00DD              add ch,bl
000024D9  1A00              sbb al,[eax]
000024DB  00F4              add ah,dh
000024DD  1A00              sbb al,[eax]
000024DF  000B              add [ebx],cl
000024E1  1B00              sbb eax,[eax]
000024E3  0022              add [edx],ah
000024E5  1B00              sbb eax,[eax]
000024E7  0039              add [ecx],bh
000024E9  1B00              sbb eax,[eax]
000024EB  00501B            add [eax+0x1b],dl
000024EE  0000              add [eax],al
000024F0  671B00            sbb eax,[bx+si]
000024F3  007E1B            add [esi+0x1b],bh
000024F6  0000              add [eax],al
000024F8  95                xchg eax,ebp
000024F9  1B00              sbb eax,[eax]
000024FB  00AC1B0000C31B    add [ebx+ebx+0x1bc30000],ch
00002502  0000              add [eax],al
00002504  DA1B              ficomp dword [ebx]
00002506  0000              add [eax],al
00002508  F1                int1
00002509  1B00              sbb eax,[eax]
0000250B  0008              add [eax],cl
0000250D  1C00              sbb al,0x0
0000250F  001F              add [edi],bl
00002511  1C00              sbb al,0x0
00002513  0036              add [esi],dh
00002515  1C00              sbb al,0x0
00002517  004D1C            add [ebp+0x1c],cl
0000251A  0000              add [eax],al
0000251C  641C00            fs sbb al,0x0
0000251F  007B1C            add [ebx+0x1c],bh
00002522  0000              add [eax],al
00002524  92                xchg eax,edx
00002525  1C00              sbb al,0x0
00002527  00A61C0000BA      add [esi-0x45ffffe4],ah
0000252D  1C00              sbb al,0x0
0000252F  00CE              add dh,cl
00002531  1C00              sbb al,0x0
00002533  00E2              add dl,ah
00002535  1C00              sbb al,0x0
00002537  00F6              add dh,dh
00002539  1C00              sbb al,0x0
0000253B  000A              add [edx],cl
0000253D  1D00007363        sbb eax,0x63730000
00002542  004343            add [ebx+0x43],al
00002545  45                inc ebp
00002546  7469              jz 0x25b1
00002548  61                popa
00002549  6E                outsb
0000254A  40                inc eax
0000254B  3230              xor dh,[eax]
0000254D  3230              xor dh,[eax]
0000254F  3E3E0000          add [ds:eax],al
00002553  001400            add [eax+eax],dl
00002556  0000              add [eax],al
00002558  0000              add [eax],al
0000255A  0000              add [eax],al
0000255C  017A52            add [edx+0x52],edi
0000255F  0001              add [ecx],al
00002561  7C08              jl 0x256b
00002563  011B              add [ebx],ebx
00002565  0C04              or al,0x4
00002567  0488              add al,0x88
00002569  0100              add [eax],eax
0000256B  001C00            add [eax+eax],bl
0000256E  0000              add [eax],al
00002570  1C00              sbb al,0x0
00002572  0000              add [eax],al
00002574  8CEC              mov esp,gs
00002576  FF                db 0xff
00002577  FF                db 0xff
00002578  BD00000000        mov ebp,0x0
0000257D  41                inc ecx
0000257E  0E                push cs
0000257F  088502420D05      or [ebp+0x50d4202],al
00002585  02B9C50C0404      add bh,[ecx+0x4040cc5]
0000258B  001C00            add [eax+eax],bl
0000258E  0000              add [eax],al
00002590  3C00              cmp al,0x0
00002592  0000              add [eax],al
00002594  29ED              sub ebp,ebp
00002596  FF                db 0xff
00002597  FF5904            call far [ecx+0x4]
0000259A  0000              add [eax],al
0000259C  00410E            add [ecx+0xe],al
0000259F  088502420D05      or [ebp+0x50d4202],al
000025A5  035504            add edx,[ebp+0x4]
000025A8  C50C04            lds ecx,[esp+eax]
000025AB  041C              add al,0x1c
000025AD  0000              add [eax],al
000025AF  005C0000          add [eax+eax+0x0],bl
000025B3  0062F1            add [edx-0xf],ah
000025B6  FF                db 0xff
000025B7  FF6100            jmp [ecx+0x0]
000025BA  0000              add [eax],al
000025BC  00410E            add [ecx+0xe],al
000025BF  088502420D05      or [ebp+0x50d4202],al
000025C5  025DC5            add bl,[ebp-0x3b]
000025C8  0C04              or al,0x4
000025CA  0400              add al,0x0
000025CC  1C00              sbb al,0x0
000025CE  0000              add [eax],al
000025D0  7C00              jl 0x25d2
000025D2  0000              add [eax],al
000025D4  A3F1FFFF19        mov [0x19fffff1],eax
000025D9  0000              add [eax],al
000025DB  0000              add [eax],al
000025DD  41                inc ecx
000025DE  0E                push cs
000025DF  088502420D05      or [ebp+0x50d4202],al
000025E5  55                push ebp
000025E6  C50C04            lds ecx,[esp+eax]
000025E9  0400              add al,0x0
000025EB  001C00            add [eax+eax],bl
000025EE  0000              add [eax],al
000025F0  9C                pushf
000025F1  0000              add [eax],al
000025F3  009CF1FFFF1600    add [ecx+esi*8+0x16ffff],bl
000025FA  0000              add [eax],al
000025FC  00410E            add [ecx+0xe],al
000025FF  088502420D05      or [ebp+0x50d4202],al
00002605  52                push edx
00002606  C50C04            lds ecx,[esp+eax]
00002609  0400              add al,0x0
0000260B  001C00            add [eax+eax],bl
0000260E  0000              add [eax],al
00002610  BC00000096        mov esp,0x96000000
00002615  F3                rep
00002616  FF                db 0xff
00002617  FF8005000000      inc dword [eax+0x5]
0000261D  41                inc ecx
0000261E  0E                push cs
0000261F  088502420D05      or [ebp+0x50d4202],al
00002625  037C05C5          add edi,[ebp+eax-0x3b]
00002629  0C04              or al,0x4
0000262B  041C              add al,0x1c
0000262D  0000              add [eax],al
0000262F  00DC              add ah,bl
00002631  0000              add [eax],al
00002633  00F6              add dh,dh
00002635  F8                clc
00002636  FF                db 0xff
00002637  FF1B              call far [ebx]
00002639  0000              add [eax],al
0000263B  0000              add [eax],al
0000263D  41                inc ecx
0000263E  0E                push cs
0000263F  088502420D05      or [ebp+0x50d4202],al
00002645  57                push edi
00002646  C50C04            lds ecx,[esp+eax]
00002649  0400              add al,0x0
0000264B  001C00            add [eax+eax],bl
0000264E  0000              add [eax],al
00002650  FC                cld
00002651  0000              add [eax],al
00002653  00F1              add cl,dh
00002655  F8                clc
00002656  FF                db 0xff
00002657  FF6D00            jmp far [ebp+0x0]
0000265A  0000              add [eax],al
0000265C  00410E            add [ecx+0xe],al
0000265F  088502420D05      or [ebp+0x50d4202],al
00002665  0269C5            add ch,[ecx-0x3b]
00002668  0C04              or al,0x4
0000266A  0400              add al,0x0
0000266C  1C00              sbb al,0x0
0000266E  0000              add [eax],al
00002670  1C01              sbb al,0x1
00002672  0000              add [eax],al
00002674  3EF9              ds stc
00002676  FF                db 0xff
00002677  FF1F              call far [edi]
00002679  0000              add [eax],al
0000267B  0000              add [eax],al
0000267D  41                inc ecx
0000267E  0E                push cs
0000267F  088502420D05      or [ebp+0x50d4202],al
00002685  5B                pop ebx
00002686  C50C04            lds ecx,[esp+eax]
00002689  0400              add al,0x0
0000268B  001C00            add [eax+eax],bl
0000268E  0000              add [eax],al
00002690  3C01              cmp al,0x1
00002692  0000              add [eax],al
00002694  3DF9FFFF1D        cmp eax,0x1dfffff9
00002699  0000              add [eax],al
0000269B  0000              add [eax],al
0000269D  41                inc ecx
0000269E  0E                push cs
0000269F  088502420D05      or [ebp+0x50d4202],al
000026A5  59                pop ecx
000026A6  C50C04            lds ecx,[esp+eax]
000026A9  0400              add al,0x0
000026AB  001C00            add [eax+eax],bl
000026AE  0000              add [eax],al
000026B0  5C                pop esp
000026B1  0100              add [eax],eax
000026B3  003A              add [edx],bh
000026B5  F9                stc
000026B6  FF                db 0xff
000026B7  FF6300            jmp [ebx+0x0]
000026BA  0000              add [eax],al
000026BC  00410E            add [ecx+0xe],al
000026BF  088502420D05      or [ebp+0x50d4202],al
000026C5  025FC5            add bl,[edi-0x3b]
000026C8  0C04              or al,0x4
000026CA  0400              add al,0x0
000026CC  1C00              sbb al,0x0
000026CE  0000              add [eax],al
000026D0  7C01              jl 0x26d3
000026D2  0000              add [eax],al
000026D4  7DF9              jnl 0x26cf
000026D6  FF                db 0xff
000026D7  FFE0              jmp eax
000026D9  0100              add [eax],eax
000026DB  0000              add [eax],al
000026DD  41                inc ecx
000026DE  0E                push cs
000026DF  088502420D05      or [ebp+0x50d4202],al
000026E5  03DC              add ebx,esp
000026E7  01C5              add ebp,eax
000026E9  0C04              or al,0x4
000026EB  041C              add al,0x1c
000026ED  0000              add [eax],al
000026EF  009C0100003DFB    add [ecx+eax-0x4c30000],bl
000026F6  FF                db 0xff
000026F7  FF5500            call [ebp+0x0]
000026FA  0000              add [eax],al
000026FC  00410E            add [ecx+0xe],al
000026FF  088502420D05      or [ebp+0x50d4202],al
00002705  0251C5            add dl,[ecx-0x3b]
00002708  0C04              or al,0x4
0000270A  0400              add al,0x0
0000270C  1C00              sbb al,0x0
0000270E  0000              add [eax],al
00002710  BC01000072        mov esp,0x72000001
00002715  FB                sti
00002716  FF                db 0xff
00002717  FF6500            jmp [ebp+0x0]
0000271A  0000              add [eax],al
0000271C  00410E            add [ecx+0xe],al
0000271F  088502420D05      or [ebp+0x50d4202],al
00002725  0261C5            add ah,[ecx-0x3b]
00002728  0C04              or al,0x4
0000272A  0400              add al,0x0
0000272C  1C00              sbb al,0x0
0000272E  0000              add [eax],al
00002730  DC01              fadd qword [ecx]
00002732  0000              add [eax],al
00002734  B7FB              mov bh,0xfb
00002736  FF                db 0xff
00002737  FF33              push dword [ebx]
00002739  0000              add [eax],al
0000273B  0000              add [eax],al
0000273D  41                inc ecx
0000273E  0E                push cs
0000273F  088502420D05      or [ebp+0x50d4202],al
00002745  6F                outsd
00002746  C50C04            lds ecx,[esp+eax]
00002749  0400              add al,0x0
0000274B  001C00            add [eax+eax],bl
0000274E  0000              add [eax],al
00002750  FC                cld
00002751  0100              add [eax],eax
00002753  00CA              add dl,cl
00002755  FB                sti
00002756  FF                db 0xff
00002757  FF4300            inc dword [ebx+0x0]
0000275A  0000              add [eax],al
0000275C  00410E            add [ecx+0xe],al
0000275F  088502420D05      or [ebp+0x50d4202],al
00002765  7FC5              jg 0x272c
00002767  0C04              or al,0x4
00002769  0400              add al,0x0
0000276B  001C00            add [eax+eax],bl
0000276E  0000              add [eax],al
00002770  1C02              sbb al,0x2
00002772  0000              add [eax],al
00002774  ED                in eax,dx
00002775  FB                sti
00002776  FF                db 0xff
00002777  FF6100            jmp [ecx+0x0]
0000277A  0000              add [eax],al
0000277C  00410E            add [ecx+0xe],al
0000277F  088502420D05      or [ebp+0x50d4202],al
00002785  025DC5            add bl,[ebp-0x3b]
00002788  0C04              or al,0x4
0000278A  0400              add al,0x0
0000278C  47                inc edi
0000278D  43                inc ebx
0000278E  43                inc ebx
0000278F  3A20              cmp ah,[eax]
00002791  285562            sub [ebp+0x62],dl
00002794  756E              jnz 0x2804
00002796  7475              jz 0x280d
00002798  2037              and [edi],dh
0000279A  2E342E            cs xor al,0x2e
0000279D  302D31756275      xor [dword 0x75627531],ch
000027A3  6E                outsb
000027A4  7475              jz 0x281b
000027A6  317E31            xor [esi+0x31],edi
000027A9  382E              cmp [esi],ch
000027AB  30342E            xor [esi+ebp],dh
000027AE  3129              xor [ecx],ebp
000027B0  2037              and [edi],dh
000027B2  2E342E            cs xor al,0x2e
000027B5  3000              xor [eax],al
000027B7  0000              add [eax],al
000027B9  0000              add [eax],al
000027BB  0000              add [eax],al
000027BD  0000              add [eax],al
000027BF  0000              add [eax],al
000027C1  0000              add [eax],al
000027C3  0000              add [eax],al
000027C5  0000              add [eax],al
000027C7  0000              add [eax],al
000027C9  0000              add [eax],al
000027CB  0000              add [eax],al
000027CD  1000              adc [eax],al
000027CF  0000              add [eax],al
000027D1  0000              add [eax],al
000027D3  0003              add [ebx],al
000027D5  0001              add [ecx],al
000027D7  0000              add [eax],al
000027D9  0000              add [eax],al
000027DB  00C4              add ah,al
000027DD  2100              and [eax],eax
000027DF  0000              add [eax],al
000027E1  0000              add [eax],al
000027E3  0003              add [ebx],al
000027E5  0002              add [edx],al
000027E7  0000              add [eax],al
000027E9  0000              add [eax],al
000027EB  00542300          add [ebx+0x0],dl
000027EF  0000              add [eax],al
000027F1  0000              add [eax],al
000027F3  0003              add [ebx],al
000027F5  0003              add [ebx],al
000027F7  0000              add [eax],al
000027F9  0000              add [eax],al
000027FB  0000              add [eax],al
000027FD  40                inc eax
000027FE  0000              add [eax],al
00002800  0000              add [eax],al
00002802  0000              add [eax],al
00002804  0300              add eax,[eax]
00002806  0400              add al,0x0
00002808  0000              add [eax],al
0000280A  0000              add [eax],al
0000280C  0000              add [eax],al
0000280E  0000              add [eax],al
00002810  0000              add [eax],al
00002812  0000              add [eax],al
00002814  0300              add eax,[eax]
00002816  0500010000        add eax,0x100
0000281B  0000              add [eax],al
0000281D  0000              add [eax],al
0000281F  0000              add [eax],al
00002821  0000              add [eax],al
00002823  000400            add [eax+eax],al
00002826  F1                int1
00002827  FF09              dec dword [ecx]
00002829  0000              add [eax],al
0000282B  0016              add [esi],dl
0000282D  1500006100        adc eax,0x610000
00002832  0000              add [eax],al
00002834  0200              add al,[eax]
00002836  0100              add [eax],eax
00002838  1300              adc eax,[eax]
0000283A  0000              add [eax],al
0000283C  0000              add [eax],al
0000283E  0000              add [eax],al
00002840  0000              add [eax],al
00002842  0000              add [eax],al
00002844  0400              add al,0x0
00002846  F1                int1
00002847  FF1E              call far [esi]
00002849  0000              add [eax],al
0000284B  005F17            add [edi+0x17],bl
0000284E  0000              add [eax],al
00002850  0000              add [eax],al
00002852  0000              add [eax],al
00002854  0000              add [eax],al
00002856  0100              add [eax],eax
00002858  2E0000            add [cs:eax],al
0000285B  008217000000      add [edx+0x17],al
00002861  0000              add [eax],al
00002863  0000              add [eax],al
00002865  0001              add [ecx],al
00002867  003E              add [esi],bh
00002869  0000              add [eax],al
0000286B  00A517000000      add [ebp+0x17],ah
00002871  0000              add [eax],al
00002873  0000              add [eax],al
00002875  0001              add [ecx],al
00002877  004100            add [ecx+0x0],al
0000287A  0000              add [eax],al
0000287C  A6                cmpsb
0000287D  17                pop ss
0000287E  0000              add [eax],al
00002880  0000              add [eax],al
00002882  0000              add [eax],al
00002884  0000              add [eax],al
00002886  0100              add [eax],eax
00002888  44                inc esp
00002889  0000              add [eax],al
0000288B  0000              add [eax],al
0000288D  0000              add [eax],al
0000288F  0000              add [eax],al
00002891  0000              add [eax],al
00002893  000400            add [eax+eax],al
00002896  F1                int1
00002897  FF5000            call [eax+0x0]
0000289A  0000              add [eax],al
0000289C  0000              add [eax],al
0000289E  0000              add [eax],al
000028A0  0000              add [eax],al
000028A2  0000              add [eax],al
000028A4  0400              add al,0x0
000028A6  F1                int1
000028A7  FF5A00            call far [edx+0x0]
000028AA  0000              add [eax],al
000028AC  51                push ecx
000028AD  17                pop ss
000028AE  0000              add [eax],al
000028B0  0000              add [eax],al
000028B2  0000              add [eax],al
000028B4  1000              adc [eax],al
000028B6  0100              add [eax],eax
000028B8  60                pusha
000028B9  0000              add [eax],al
000028BB  000417            add [edi+edx],al
000028BE  0000              add [eax],al
000028C0  0000              add [eax],al
000028C2  0000              add [eax],al
000028C4  1000              adc [eax],al
000028C6  0100              add [eax],eax
000028C8  660000            o16 add [eax],al
000028CB  00F3              add bl,dh
000028CD  16                push ss
000028CE  0000              add [eax],al
000028D0  0000              add [eax],al
000028D2  0000              add [eax],al
000028D4  1000              adc [eax],al
000028D6  0100              add [eax],eax
000028D8  6C                insb
000028D9  0000              add [eax],al
000028DB  00EB              add bl,ch
000028DD  2000              and [eax],al
000028DF  0033              add [ebx],dh
000028E1  0000              add [eax],al
000028E3  0012              add [edx],dl
000028E5  0001              add [ecx],al
000028E7  00740000          add [eax+eax+0x0],dh
000028EB  00E3              add bl,ah
000028ED  1500000000        adc eax,0x0
000028F2  0000              add [eax],al
000028F4  1000              adc [eax],al
000028F6  0100              add [eax],eax
000028F8  7900              jns 0x28fa
000028FA  0000              add [eax],al
000028FC  BD16000000        mov ebp,0x16
00002901  0000              add [eax],al
00002903  0010              add [eax],dl
00002905  0001              add [ecx],al
00002907  007F00            add [edi+0x0],bh
0000290A  0000              add [eax],al
0000290C  3516000000        xor eax,0x16
00002911  0000              add [eax],al
00002913  0010              add [eax],dl
00002915  0001              add [ecx],al
00002917  00850000008B      add [ebp-0x75000000],al
0000291D  16                push ss
0000291E  0000              add [eax],al
00002920  0000              add [eax],al
00002922  0000              add [eax],al
00002924  1000              adc [eax],al
00002926  0100              add [eax],eax
00002928  8B00              mov eax,[eax]
0000292A  0000              add [eax],al
0000292C  45                inc ebp
0000292D  16                push ss
0000292E  0000              add [eax],al
00002930  0000              add [eax],al
00002932  0000              add [eax],al
00002934  1000              adc [eax],al
00002936  0100              add [eax],eax
00002938  91                xchg eax,ecx
00002939  0000              add [eax],al
0000293B  003C17            add [edi+edx],bh
0000293E  0000              add [eax],al
00002940  0000              add [eax],al
00002942  0000              add [eax],al
00002944  1000              adc [eax],al
00002946  0100              add [eax],eax
00002948  97                xchg eax,edi
00002949  0000              add [eax],al
0000294B  0020              add [eax],ah
0000294D  17                pop ss
0000294E  0000              add [eax],al
00002950  0000              add [eax],al
00002952  0000              add [eax],al
00002954  1000              adc [eax],al
00002956  0100              add [eax],eax
00002958  9D                popf
00002959  0000              add [eax],al
0000295B  0013              add [ebx],dl
0000295D  16                push ss
0000295E  0000              add [eax],al
00002960  0000              add [eax],al
00002962  0000              add [eax],al
00002964  1000              adc [eax],al
00002966  0100              add [eax],eax
00002968  A200000095        mov [0x95000000],al
0000296D  16                push ss
0000296E  0000              add [eax],al
00002970  0000              add [eax],al
00002972  0000              add [eax],al
00002974  1000              adc [eax],al
00002976  0100              add [eax],eax
00002978  A800              test al,0x0
0000297A  0000              add [eax],al
0000297C  D116              rcl dword [esi],1
0000297E  0000              add [eax],al
00002980  0000              add [eax],al
00002982  0000              add [eax],al
00002984  1000              adc [eax],al
00002986  0100              add [eax],eax
00002988  AE                scasb
00002989  0000              add [eax],al
0000298B  00E2              add dl,ah
0000298D  16                push ss
0000298E  0000              add [eax],al
00002990  0000              add [eax],al
00002992  0000              add [eax],al
00002994  1000              adc [eax],al
00002996  0100              add [eax],eax
00002998  B400              mov ah,0x0
0000299A  0000              add [eax],al
0000299C  284800            sub [eax+0x0],cl
0000299F  000400            add [eax+eax],al
000029A2  0000              add [eax],al
000029A4  1100              adc [eax],eax
000029A6  0400              add al,0x0
000029A8  BA00000081        mov edx,0x81000000
000029AD  16                push ss
000029AE  0000              add [eax],al
000029B0  0000              add [eax],al
000029B2  0000              add [eax],al
000029B4  1000              adc [eax],al
000029B6  0100              add [eax],eax
000029B8  C00000            rol byte [eax],byte 0x0
000029BB  0019              add [ecx],bl
000029BD  17                pop ss
000029BE  0000              add [eax],al
000029C0  0000              add [eax],al
000029C2  0000              add [eax],al
000029C4  1000              adc [eax],al
000029C6  0100              add [eax],eax
000029C8  C60000            mov byte [eax],0x0
000029CB  00C7              add bh,al
000029CD  16                push ss
000029CE  0000              add [eax],al
000029D0  0000              add [eax],al
000029D2  0000              add [eax],al
000029D4  1000              adc [eax],al
000029D6  0100              add [eax],eax
000029D8  CC                int3
000029D9  0000              add [eax],al
000029DB  004A17            add [edx+0x17],cl
000029DE  0000              add [eax],al
000029E0  0000              add [eax],al
000029E2  0000              add [eax],al
000029E4  1000              adc [eax],al
000029E6  0100              add [eax],eax
000029E8  D200              rol byte [eax],cl
000029EA  0000              add [eax],al
000029EC  0B16              or edx,[esi]
000029EE  0000              add [eax],al
000029F0  0000              add [eax],al
000029F2  0000              add [eax],al
000029F4  1000              adc [eax],al
000029F6  0100              add [eax],eax
000029F8  D7                xlatb
000029F9  0000              add [eax],al
000029FB  000440            add [eax+eax*2],al
000029FE  0000              add [eax],al
00002A00  0400              add al,0x0
00002A02  0000              add [eax],al
00002A04  1100              adc [eax],eax
00002A06  0400              add al,0x0
00002A08  E400              in al,0x0
00002A0A  0000              add [eax],al
00002A0C  7716              ja 0x2a24
00002A0E  0000              add [eax],al
00002A10  0000              add [eax],al
00002A12  0000              add [eax],al
00002A14  1000              adc [eax],al
00002A16  0100              add [eax],eax
00002A18  EA0000003D1600    jmp 0x16:0x3d000000
00002A1F  0000              add [eax],al
00002A21  0000              add [eax],al
00002A23  0010              add [eax],dl
00002A25  0001              add [ecx],al
00002A27  00F0              add al,dh
00002A29  0000              add [eax],al
00002A2B  0031              add [ecx],dh
00002A2D  2000              and [eax],al
00002A2F  005500            add [ebp+0x0],dl
00002A32  0000              add [eax],al
00002A34  1200              adc al,[eax]
00002A36  0100              add [eax],eax
00002A38  FB                sti
00002A39  0000              add [eax],al
00002A3B  00ED              add ch,ch
00002A3D  1500000000        adc eax,0x0
00002A42  0000              add [eax],al
00002A44  1000              adc [eax],al
00002A46  0100              add [eax],eax
00002A48  0001              add [ecx],al
00002A4A  0000              add [eax],al
00002A4C  204000            and [eax+0x0],al
00002A4F  0000              add [eax],al
00002A51  0800              or [eax],al
00002A53  0011              add [ecx],dl
00002A55  000400            add [eax+eax],al
00002A58  0501000077        add eax,0x77000001
00002A5D  1500001900        adc eax,0x190000
00002A62  0000              add [eax],al
00002A64  1200              adc al,[eax]
00002A66  0100              add [eax],eax
00002A68  0801              or [ecx],al
00002A6A  0000              add [eax],al
00002A6C  E916000000        jmp 0x2a87
00002A71  0000              add [eax],al
00002A73  0010              add [eax],dl
00002A75  0001              add [ecx],al
00002A77  000E              add [esi],cl
00002A79  0100              add [eax],eax
00002A7B  0012              add [edx],dl
00002A7D  17                pop ss
00002A7E  0000              add [eax],al
00002A80  0000              add [eax],al
00002A82  0000              add [eax],al
00002A84  1000              adc [eax],al
00002A86  0100              add [eax],eax
00002A88  1401              adc al,0x1
00002A8A  0000              add [eax],al
00002A8C  43                inc ebx
00002A8D  17                pop ss
00002A8E  0000              add [eax],al
00002A90  0000              add [eax],al
00002A92  0000              add [eax],al
00002A94  1000              adc [eax],al
00002A96  0100              add [eax],eax
00002A98  1A01              sbb al,[ecx]
00002A9A  0000              add [eax],al
00002A9C  3517000000        xor eax,0x17
00002AA1  0000              add [eax],al
00002AA3  0010              add [eax],dl
00002AA5  0001              add [ecx],al
00002AA7  0020              add [eax],ah
00002AA9  0100              add [eax],eax
00002AAB  008620000065      add [esi+0x65000020],al
00002AB1  0000              add [eax],al
00002AB3  0012              add [edx],dl
00002AB5  0001              add [ecx],al
00002AB7  002B              add [ebx],ch
00002AB9  0100              add [eax],eax
00002ABB  00451D            add [ebp+0x1d],al
00002ABE  0000              add [eax],al
00002AC0  6D                insd
00002AC1  0000              add [eax],al
00002AC3  0012              add [edx],dl
00002AC5  0001              add [ecx],al
00002AC7  005D01            add [ebp+0x1],bl
00002ACA  0000              add [eax],al
00002ACC  0000              add [eax],al
00002ACE  0000              add [eax],al
00002AD0  0000              add [eax],al
00002AD2  0000              add [eax],al
00002AD4  1000              adc [eax],al
00002AD6  0000              add [eax],al
00002AD8  3001              xor [ecx],al
00002ADA  0000              add [eax],al
00002ADC  2A1D00001B00      sub bl,[dword 0x1b0000]
00002AE2  0000              add [eax],al
00002AE4  1200              adc al,[eax]
00002AE6  0100              add [eax],eax
00002AE8  3401              xor al,0x1
00002AEA  0000              add [eax],al
00002AEC  C51500000000      lds edx,[dword 0x0]
00002AF2  0000              add [eax],al
00002AF4  1000              adc [eax],al
00002AF6  0100              add [eax],eax
00002AF8  3901              cmp [ecx],eax
00002AFA  0000              add [eax],al
00002AFC  B316              mov bl,0x16
00002AFE  0000              add [eax],al
00002B00  0000              add [eax],al
00002B02  0000              add [eax],al
00002B04  1000              adc [eax],al
00002B06  0100              add [eax],eax
00002B08  3F                aas
00002B09  0100              add [eax],eax
00002B0B  002516000000      add [dword 0x16],ah
00002B11  0000              add [eax],al
00002B13  0010              add [eax],dl
00002B15  0001              add [ecx],al
00002B17  004501            add [ebp+0x1],al
00002B1A  0000              add [eax],al
00002B1C  BD10000059        mov ebp,0x59000010
00002B21  0400              add al,0x0
00002B23  0012              add [edx],dl
00002B25  0001              add [ecx],al
00002B27  004A01            add [edx+0x1],cl
00002B2A  0000              add [eax],al
00002B2C  61                popa
00002B2D  2100              and [eax],eax
00002B2F  006100            add [ecx+0x0],ah
00002B32  0000              add [eax],al
00002B34  1200              adc al,[eax]
00002B36  0100              add [eax],eax
00002B38  52                push edx
00002B39  0100              add [eax],eax
00002B3B  002D16000000      add [dword 0x16],ch
00002B41  0000              add [eax],al
00002B43  0010              add [eax],dl
00002B45  0001              add [ecx],al
00002B47  005801            add [eax+0x1],bl
00002B4A  0000              add [eax],al
00002B4C  004000            add [eax+0x0],al
00002B4F  0000              add [eax],al
00002B51  0000              add [eax],al
00002B53  0010              add [eax],dl
00002B55  000400            add [eax+eax],al
00002B58  640100            add [fs:eax],eax
00002B5B  00BB15000000      add [ebx+0x15],bh
00002B61  0000              add [eax],al
00002B63  0010              add [eax],dl
00002B65  0001              add [ecx],al
00002B67  006901            add [ecx+0x1],ch
00002B6A  0000              add [eax],al
00002B6C  D11D00001D00      rcr dword [dword 0x1d0000],1
00002B72  0000              add [eax],al
00002B74  1200              adc al,[eax]
00002B76  0100              add [eax],eax
00002B78  7601              jna 0x2b7b
00002B7A  0000              add [eax],al
00002B7C  9F                lahf
00002B7D  16                push ss
00002B7E  0000              add [eax],al
00002B80  0000              add [eax],al
00002B82  0000              add [eax],al
00002B84  1000              adc [eax],al
00002B86  0100              add [eax],eax
00002B88  7C01              jl 0x2b8b
00002B8A  0000              add [eax],al
00002B8C  4F                dec edi
00002B8D  16                push ss
00002B8E  0000              add [eax],al
00002B90  0000              add [eax],al
00002B92  0000              add [eax],al
00002B94  1000              adc [eax],al
00002B96  0100              add [eax],eax
00002B98  82                db 0x82
00002B99  0100              add [eax],eax
00002B9B  0000              add [eax],al
00002B9D  1000              adc [eax],al
00002B9F  00BD00000012      add [ebp+0x12000000],bh
00002BA5  0001              add [ecx],al
00002BA7  008801000051      add [eax+0x51000001],cl
00002BAD  1E                push ds
00002BAE  0000              add [eax],al
00002BB0  E001              loopne 0x2bb3
00002BB2  0000              add [eax],al
00002BB4  1200              adc al,[eax]
00002BB6  0100              add [eax],eax
00002BB8  91                xchg eax,ecx
00002BB9  0100              add [eax],eax
00002BBB  0000              add [eax],al
00002BBD  40                inc eax
00002BBE  0000              add [eax],al
00002BC0  0400              add al,0x0
00002BC2  0000              add [eax],al
00002BC4  1100              adc [eax],eax
00002BC6  0400              add al,0x0
00002BC8  98                cwde
00002BC9  0100              add [eax],eax
00002BCB  000B              add [ebx],cl
00002BCD  17                pop ss
00002BCE  0000              add [eax],al
00002BD0  0000              add [eax],al
00002BD2  0000              add [eax],al
00002BD4  1000              adc [eax],al
00002BD6  0100              add [eax],eax
00002BD8  9E                sahf
00002BD9  0100              add [eax],eax
00002BDB  00D9              add cl,bl
00002BDD  1500000000        adc eax,0x0
00002BE2  0000              add [eax],al
00002BE4  1000              adc [eax],al
00002BE6  0100              add [eax],eax
00002BE8  A3010000B2        mov [0xb2000001],eax
00002BED  1D00001F00        sbb eax,0x1f0000
00002BF2  0000              add [eax],al
00002BF4  1200              adc al,[eax]
00002BF6  0100              add [eax],eax
00002BF8  B101              mov cl,0x1
00002BFA  0000              add [eax],al
00002BFC  FD                std
00002BFD  16                push ss
00002BFE  0000              add [eax],al
00002C00  0000              add [eax],al
00002C02  0000              add [eax],al
00002C04  1000              adc [eax],al
00002C06  0100              add [eax],eax
00002C08  B701              mov bh,0x1
00002C0A  0000              add [eax],al
00002C0C  F71500000000      not dword [dword 0x0]
00002C12  0000              add [eax],al
00002C14  1000              adc [eax],al
00002C16  0100              add [eax],eax
00002C18  BC010000AA        mov esp,0xaa000001
00002C1D  17                pop ss
00002C1E  0000              add [eax],al
00002C20  80050000120001    add byte [dword 0x120000],0x1
00002C27  00C6              add dh,al
00002C29  0100              add [eax],eax
00002C2B  006316            add [ebx+0x16],ah
00002C2E  0000              add [eax],al
00002C30  0000              add [eax],al
00002C32  0000              add [eax],al
00002C34  1000              adc [eax],al
00002C36  0100              add [eax],eax
00002C38  CC                int3
00002C39  0100              add [eax],eax
00002C3B  0000              add [eax],al
00002C3D  40                inc eax
00002C3E  0000              add [eax],al
00002C40  0000              add [eax],al
00002C42  0000              add [eax],al
00002C44  1000              adc [eax],al
00002C46  0400              add al,0x0
00002C48  D301              rol dword [ecx],cl
00002C4A  0000              add [eax],al
00002C4C  27                daa
00002C4D  17                pop ss
00002C4E  0000              add [eax],al
00002C50  0000              add [eax],al
00002C52  0000              add [eax],al
00002C54  1000              adc [eax],al
00002C56  0100              add [eax],eax
00002C58  D901              fld dword [ecx]
00002C5A  0000              add [eax],al
00002C5C  2C48              sub al,0x48
00002C5E  0000              add [eax],al
00002C60  0000              add [eax],al
00002C62  0000              add [eax],al
00002C64  1000              adc [eax],al
00002C66  0400              add al,0x0
00002C68  DE01              fiadd word [ecx]
00002C6A  0000              add [eax],al
00002C6C  2E17              cs pop ss
00002C6E  0000              add [eax],al
00002C70  0000              add [eax],al
00002C72  0000              add [eax],al
00002C74  1000              adc [eax],al
00002C76  0100              add [eax],eax
00002C78  E401              in al,0x1
00002C7A  0000              add [eax],al
00002C7C  B015              mov al,0x15
00002C7E  0000              add [eax],al
00002C80  0000              add [eax],al
00002C82  0000              add [eax],al
00002C84  1000              adc [eax],al
00002C86  0100              add [eax],eax
00002C88  EA010000581700    jmp 0x17:0x58000001
00002C8F  0000              add [eax],al
00002C91  0000              add [eax],al
00002C93  0010              add [eax],dl
00002C95  0001              add [ecx],al
00002C97  00F0              add al,dh
00002C99  0100              add [eax],eax
00002C9B  001D16000000      add [dword 0x16],bl
00002CA1  0000              add [eax],al
00002CA3  0010              add [eax],dl
00002CA5  0001              add [ecx],al
00002CA7  00F6              add dh,dh
00002CA9  0100              add [eax],eax
00002CAB  00EE              add dh,ch
00002CAD  1D00006300        sbb eax,0x630000
00002CB2  0000              add [eax],al
00002CB4  1200              adc al,[eax]
00002CB6  0100              add [eax],eax
00002CB8  FE01              inc byte [ecx]
00002CBA  0000              add [eax],al
00002CBC  59                pop ecx
00002CBD  16                push ss
00002CBE  0000              add [eax],al
00002CC0  0000              add [eax],al
00002CC2  0000              add [eax],al
00002CC4  1000              adc [eax],al
00002CC6  0100              add [eax],eax
00002CC8  0402              add al,0x2
00002CCA  0000              add [eax],al
00002CCC  CF                iret
00002CCD  1500000000        adc eax,0x0
00002CD2  0000              add [eax],al
00002CD4  1000              adc [eax],al
00002CD6  0100              add [eax],eax
00002CD8  0902              or [edx],eax
00002CDA  0000              add [eax],al
00002CDC  6D                insd
00002CDD  16                push ss
00002CDE  0000              add [eax],al
00002CE0  0000              add [eax],al
00002CE2  0000              add [eax],al
00002CE4  1000              adc [eax],al
00002CE6  0100              add [eax],eax
00002CE8  0F0200            lar eax,[eax]
00002CEB  00DB              add bl,bl
00002CED  16                push ss
00002CEE  0000              add [eax],al
00002CF0  0000              add [eax],al
00002CF2  0000              add [eax],al
00002CF4  1000              adc [eax],al
00002CF6  0100              add [eax],eax
00002CF8  1502000001        adc eax,0x1000002
00002CFD  16                push ss
00002CFE  0000              add [eax],al
00002D00  0000              add [eax],al
00002D02  0000              add [eax],al
00002D04  1000              adc [eax],al
00002D06  0100              add [eax],eax
00002D08  1A02              sbb al,[edx]
00002D0A  0000              add [eax],al
00002D0C  A916000000        test eax,0x16
00002D11  0000              add [eax],al
00002D13  0010              add [eax],dl
00002D15  0001              add [ecx],al
00002D17  0020              add [eax],ah
00002D19  0200              add al,[eax]
00002D1B  0020              add [eax],ah
00002D1D  48                dec eax
00002D1E  0000              add [eax],al
00002D20  06                push es
00002D21  0000              add [eax],al
00002D23  0011              add [ecx],dl
00002D25  000400            add [eax+eax],al
00002D28  2502000090        and eax,0x90000002
00002D2D  1500001600        adc eax,0x160000
00002D32  0000              add [eax],al
00002D34  1200              adc al,[eax]
00002D36  0100              add [eax],eax
00002D38  2902              sub [edx],eax
00002D3A  0000              add [eax],al
00002D3C  1E                push ds
00002D3D  2100              and [eax],eax
00002D3F  004300            add [ebx+0x0],al
00002D42  0000              add [eax],al
00002D44  1200              adc al,[eax]
00002D46  0100              add [eax],eax
00002D48  006669            add [esi+0x69],ah
00002D4B  7273              jc 0x2dc0
00002D4D  742E              jz 0x2d7d
00002D4F  6300              arpl [eax],ax
00002D51  7469              jz 0x2dbc
00002D53  6D                insd
00002D54  655F              gs pop edi
00002D56  7061              jo 0x2db9
00002D58  7373              jnc 0x2dcd
00002D5A  006163            add [ecx+0x63],ah
00002D5D  7475              jz 0x2dd4
00002D5F  61                popa
00002D60  6C                insb
00002D61  2E61              cs popa
00002D63  736D              jnc 0x2dd2
00002D65  006973            add [ecx+0x73],ch
00002D68  725F              jc 0x2dc9
00002D6A  636F6D            arpl [edi+0x6d],bp
00002D6D  6D                insd
00002D6E  6F                outsd
00002D6F  6E                outsb
00002D70  5F                pop edi
00002D71  7374              jnc 0x2de7
00002D73  7562              jnz 0x2dd7
00002D75  006971            add [ecx+0x71],ch
00002D78  725F              jc 0x2dd9
00002D7A  636F6D            arpl [edi+0x6d],bp
00002D7D  6D                insd
00002D7E  6F                outsd
00002D7F  6E                outsb
00002D80  5F                pop edi
00002D81  7374              jnc 0x2df7
00002D83  7562              jnz 0x2de7
00002D85  006E62            add [esi+0x62],ch
00002D88  006C6A00          add [edx+ebp*2+0x0],ch
00002D8C  696D706F727461    imul ebp,[ebp+0x70],dword 0x6174726f
00002D93  6E                outsb
00002D94  742E              jz 0x2dc4
00002D96  6300              arpl [eax],ax
00002D98  6B65726E          imul esp,[ebp+0x72],byte +0x6e
00002D9C  656C              gs insb
00002D9E  322E              xor ch,[esi]
00002DA0  6300              arpl [eax],ax
00002DA2  69737234360069    imul esi,[ebx+0x72],dword 0x69003634
00002DA9  7372              jnc 0x2e1d
00002DAB  333500697372      xor esi,[dword 0x72736900]
00002DB1  3333              xor esi,[ebx]
00002DB3  006D65            add [ebp+0x65],ch
00002DB6  6D                insd
00002DB7  5F                pop edi
00002DB8  637079            arpl [eax+0x79],si
00002DBB  006973            add [ecx+0x73],ch
00002DBE  7234              jc 0x2df4
00002DC0  006973            add [ecx+0x73],ch
00002DC3  7232              jc 0x2df7
00002DC5  37                aaa
00002DC6  006973            add [ecx+0x73],ch
00002DC9  7231              jc 0x2dfc
00002DCB  3300              xor eax,[eax]
00002DCD  69737232320069    imul esi,[ebx+0x72],dword 0x69003232
00002DD4  7372              jnc 0x2e48
00002DD6  313500697372      xor [dword 0x72736900],esi
00002DDC  3433              xor al,0x33
00002DDE  006973            add [ecx+0x73],ch
00002DE1  7233              jc 0x2e16
00002DE3  3900              cmp [eax],eax
00002DE5  69737239006973    imul esi,[ebx+0x72],dword 0x73690039
00002DEC  7232              jc 0x2e20
00002DEE  3300              xor eax,[eax]
00002DF0  69737232390069    imul esi,[ebx+0x72],dword 0x69003932
00002DF7  7372              jnc 0x2e6b
00002DF9  3331              xor esi,[ecx]
00002DFB  00696E            add [ecx+0x6e],ch
00002DFE  7075              jo 0x2e75
00002E00  7400              jz 0x2e02
00002E02  69737232310069    imul esi,[ebx+0x72],dword 0x69003132
00002E09  7372              jnc 0x2e7d
00002E0B  3338              xor edi,[eax]
00002E0D  006973            add [ecx+0x73],ch
00002E10  7232              jc 0x2e44
00002E12  3800              cmp [eax],al
00002E14  69737234350069    imul esi,[ebx+0x72],dword 0x69003534
00002E1B  7372              jnc 0x2e8f
00002E1D  3800              cmp [eax],al
00002E1F  636F6D            arpl [edi+0x6d],bp
00002E22  6D                insd
00002E23  61                popa
00002E24  6E                outsb
00002E25  645F              fs pop edi
00002E27  6D                insd
00002E28  6F                outsd
00002E29  6465006973        add [gs:ecx+0x73],ch
00002E2E  7232              jc 0x2e62
00002E30  3000              xor [eax],al
00002E32  69737231340067    imul esi,[ebx+0x72],dword 0x67003431
00002E39  65745F            gs jz 0x2e9b
00002E3C  6F                outsd
00002E3D  66667365          o16 jnc 0x2ea6
00002E41  7400              jz 0x2e43
00002E43  69737235006D6F    imul esi,[ebx+0x72],dword 0x6f6d0035
00002E4A  6469006F730069    imul eax,[fs:eax],dword 0x6900736f
00002E51  7372              jnc 0x2ec5
00002E53  3332              xor esi,[edx]
00002E55  006973            add [ecx+0x73],ch
00002E58  7233              jc 0x2e8d
00002E5A  37                aaa
00002E5B  006973            add [ecx+0x73],ch
00002E5E  7234              jc 0x2e94
00002E60  3400              xor al,0x0
00002E62  69737234320073    imul esi,[ebx+0x72],dword 0x73003234
00002E69  65745F            gs jz 0x2ecb
00002E6C  6F                outsd
00002E6D  66667365          o16 jnc 0x2ed6
00002E71  7400              jz 0x2e73
00002E73  7465              jz 0x2eda
00002E75  7374              jnc 0x2eeb
00002E77  007365            add [ebx+0x65],dh
00002E7A  7000              jo 0x2e7c
00002E7C  69737231006973    imul esi,[ebx+0x72],dword 0x73690031
00002E83  7232              jc 0x2eb7
00002E85  36006973          add [ss:ecx+0x73],ch
00002E89  7231              jc 0x2ebc
00002E8B  3100              xor [eax],eax
00002E8D  696E6974007374    imul ebp,[esi+0x69],dword 0x74730074
00002E94  725F              jc 0x2ef5
00002E96  636D70            arpl [ebp+0x70],bp
00002E99  006973            add [ecx+0x73],ch
00002E9C  7231              jc 0x2ecf
00002E9E  3200              xor al,[eax]
00002EA0  5F                pop edi
00002EA1  5F                pop edi
00002EA2  627373            bound esi,[ebx+0x73]
00002EA5  5F                pop edi
00002EA6  7374              jnc 0x2f1c
00002EA8  61                popa
00002EA9  7274              jc 0x2f1f
00002EAB  006973            add [ecx+0x73],ch
00002EAE  7230              jc 0x2ee0
00002EB0  00706F            add [eax+0x6f],dh
00002EB3  7274              jc 0x2f29
00002EB5  5F                pop edi
00002EB6  627974            bound edi,[ecx+0x74]
00002EB9  655F              gs pop edi
00002EBB  696E0069737232    imul ebp,[esi+0x0],dword 0x32727369
00002EC2  3400              xor al,0x0
00002EC4  6973723136006D    imul esi,[ebx+0x72],dword 0x6d003631
00002ECB  61                popa
00002ECC  696E6300707269    imul ebp,[esi+0x63],dword 0x69727000
00002ED3  6E                outsb
00002ED4  745F              jz 0x2f35
00002ED6  61                popa
00002ED7  7400              jz 0x2ed9
00002ED9  61                popa
00002EDA  7961              jns 0x2f3d
00002EDC  7070              jo 0x2f4e
00002EDE  61                popa
00002EDF  006973            add [ecx+0x73],ch
00002EE2  7233              jc 0x2f17
00002EE4  36006973          add [ss:ecx+0x73],ch
00002EE8  7233              jc 0x2f1d
00002EEA  00706F            add [eax+0x6f],dh
00002EED  7274              jc 0x2f63
00002EEF  5F                pop edi
00002EF0  627974            bound edi,[ecx+0x74]
00002EF3  655F              gs pop edi
00002EF5  6F                outsd
00002EF6  7574              jnz 0x2f6c
00002EF8  006973            add [ecx+0x73],ch
00002EFB  7233              jc 0x2f30
00002EFD  3400              xor al,0x0
00002EFF  6973723600696E    imul esi,[ebx+0x72],dword 0x6e690036
00002F06  7465              jz 0x2f6d
00002F08  7272              jc 0x2f7c
00002F0A  7570              jnz 0x2f7c
00002F0C  7400              jz 0x2f0e
00002F0E  6973723138005F    imul esi,[ebx+0x72],dword 0x5f003831
00002F15  656461            fs popa
00002F18  7461              jz 0x2f7b
00002F1A  006973            add [ecx+0x73],ch
00002F1D  7234              jc 0x2f53
00002F1F  3000              xor [eax],al
00002F21  5F                pop edi
00002F22  656E              gs outsb
00002F24  64006973          add [fs:ecx+0x73],ch
00002F28  7234              jc 0x2f5e
00002F2A  3100              xor [eax],eax
00002F2C  6C                insb
00002F2D  6964746100697372  imul esp,[esp+esi*2+0x61],dword 0x72736900
00002F35  3437              xor al,0x37
00002F37  006973            add [ecx+0x73],ch
00002F3A  7231              jc 0x2f6d
00002F3C  3000              xor [eax],al
00002F3E  636C6561          arpl [ebp+0x61],bp
00002F42  725F              jc 0x2fa3
00002F44  7300              jnc 0x2f46
00002F46  69737231370069    imul esi,[ebx+0x72],dword 0x69003731
00002F4D  7372              jnc 0x2fc1
00002F4F  3200              xor al,[eax]
00002F51  69737231390069    imul esi,[ebx+0x72],dword 0x69003931
00002F58  7372              jnc 0x2fcc
00002F5A  3330              xor esi,[eax]
00002F5C  006973            add [ecx+0x73],ch
00002F5F  7237              jc 0x2f98
00002F61  006973            add [ecx+0x73],ch
00002F64  7232              jc 0x2f98
00002F66  3500646973        xor eax,0x73696400
00002F6B  6300              arpl [eax],ax
00002F6D  7361              jnc 0x2fd0
00002F6F  6200              bound eax,[eax]
00002F71  7072              jo 0x2fe5
00002F73  696E745F626163    imul ebp,[esi+0x74],dword 0x6361625f
00002F7A  6B737061          imul esi,[ebx+0x70],byte +0x61
00002F7E  636500            arpl [ebp+0x0],sp
00002F81  002E              add [esi],ch
00002F83  7379              jnc 0x2ffe
00002F85  6D                insd
00002F86  7461              jz 0x2fe9
00002F88  6200              bound eax,[eax]
00002F8A  2E7374            cs jnc 0x3001
00002F8D  7274              jc 0x3003
00002F8F  61                popa
00002F90  6200              bound eax,[eax]
00002F92  2E7368            cs jnc 0x2ffd
00002F95  7374              jnc 0x300b
00002F97  7274              jc 0x300d
00002F99  61                popa
00002F9A  6200              bound eax,[eax]
00002F9C  2E7465            cs jz 0x3004
00002F9F  7874              js 0x3015
00002FA1  002E              add [esi],ch
00002FA3  726F              jc 0x3014
00002FA5  6461              fs popa
00002FA7  7461              jz 0x300a
00002FA9  002E              add [esi],ch
00002FAB  65685F667261      gs push dword 0x6172665f
00002FB1  6D                insd
00002FB2  65002E            add [gs:esi],ch
00002FB5  627373            bound esi,[ebx+0x73]
00002FB8  002E              add [esi],ch
00002FBA  636F6D            arpl [edi+0x6d],bp
00002FBD  6D                insd
00002FBE  656E              gs outsb
00002FC0  7400              jz 0x2fc2
00002FC2  0000              add [eax],al
00002FC4  0000              add [eax],al
00002FC6  0000              add [eax],al
00002FC8  0000              add [eax],al
00002FCA  0000              add [eax],al
00002FCC  0000              add [eax],al
00002FCE  0000              add [eax],al
00002FD0  0000              add [eax],al
00002FD2  0000              add [eax],al
00002FD4  0000              add [eax],al
00002FD6  0000              add [eax],al
00002FD8  0000              add [eax],al
00002FDA  0000              add [eax],al
00002FDC  0000              add [eax],al
00002FDE  0000              add [eax],al
00002FE0  0000              add [eax],al
00002FE2  0000              add [eax],al
00002FE4  0000              add [eax],al
00002FE6  0000              add [eax],al
00002FE8  0000              add [eax],al
00002FEA  0000              add [eax],al
00002FEC  1B00              sbb eax,[eax]
00002FEE  0000              add [eax],al
00002FF0  0100              add [eax],eax
00002FF2  0000              add [eax],al
00002FF4  06                push es
00002FF5  0000              add [eax],al
00002FF7  0000              add [eax],al
00002FF9  1000              adc [eax],al
00002FFB  0000              add [eax],al
00002FFD  1000              adc [eax],al
00002FFF  00C2              add dl,al
00003001  1100              adc [eax],eax
00003003  0000              add [eax],al
00003005  0000              add [eax],al
00003007  0000              add [eax],al
00003009  0000              add [eax],al
0000300B  0010              add [eax],dl
0000300D  0000              add [eax],al
0000300F  0000              add [eax],al
00003011  0000              add [eax],al
00003013  0021              add [ecx],ah
00003015  0000              add [eax],al
00003017  0001              add [ecx],al
00003019  0000              add [eax],al
0000301B  0002              add [edx],al
0000301D  0000              add [eax],al
0000301F  00C4              add ah,al
00003021  2100              and [eax],eax
00003023  00C4              add ah,al
00003025  2100              and [eax],eax
00003027  008E01000000      add [esi+0x1],cl
0000302D  0000              add [eax],al
0000302F  0000              add [eax],al
00003031  0000              add [eax],al
00003033  000400            add [eax+eax],al
00003036  0000              add [eax],al
00003038  0000              add [eax],al
0000303A  0000              add [eax],al
0000303C  2900              sub [eax],eax
0000303E  0000              add [eax],al
00003040  0100              add [eax],eax
00003042  0000              add [eax],al
00003044  0200              add al,[eax]
00003046  0000              add [eax],al
00003048  54                push esp
00003049  2300              and eax,[eax]
0000304B  00542300          add [ebx+0x0],dl
0000304F  0038              add [eax],bh
00003051  0200              add al,[eax]
00003053  0000              add [eax],al
00003055  0000              add [eax],al
00003057  0000              add [eax],al
00003059  0000              add [eax],al
0000305B  000400            add [eax+eax],al
0000305E  0000              add [eax],al
00003060  0000              add [eax],al
00003062  0000              add [eax],al
00003064  3300              xor eax,[eax]
00003066  0000              add [eax],al
00003068  0800              or [eax],al
0000306A  0000              add [eax],al
0000306C  0300              add eax,[eax]
0000306E  0000              add [eax],al
00003070  004000            add [eax+0x0],al
00003073  0000              add [eax],al
00003075  3000              xor [eax],al
00003077  002C08            add [eax+ecx],ch
0000307A  0000              add [eax],al
0000307C  0000              add [eax],al
0000307E  0000              add [eax],al
00003080  0000              add [eax],al
00003082  0000              add [eax],al
00003084  2000              and [eax],al
00003086  0000              add [eax],al
00003088  0000              add [eax],al
0000308A  0000              add [eax],al
0000308C  3800              cmp [eax],al
0000308E  0000              add [eax],al
00003090  0100              add [eax],eax
00003092  0000              add [eax],al
00003094  3000              xor [eax],al
00003096  0000              add [eax],al
00003098  0000              add [eax],al
0000309A  0000              add [eax],al
0000309C  8C2500002B00      mov [dword 0x2b0000],fs
000030A2  0000              add [eax],al
000030A4  0000              add [eax],al
000030A6  0000              add [eax],al
000030A8  0000              add [eax],al
000030AA  0000              add [eax],al
000030AC  0100              add [eax],eax
000030AE  0000              add [eax],al
000030B0  0100              add [eax],eax
000030B2  0000              add [eax],al
000030B4  0100              add [eax],eax
000030B6  0000              add [eax],al
000030B8  0200              add al,[eax]
000030BA  0000              add [eax],al
000030BC  0000              add [eax],al
000030BE  0000              add [eax],al
000030C0  0000              add [eax],al
000030C2  0000              add [eax],al
000030C4  B825000090        mov eax,0x90000025
000030C9  0500000700        add eax,0x70000
000030CE  0000              add [eax],al
000030D0  0F0000            sldt [eax]
000030D3  000400            add [eax+eax],al
000030D6  0000              add [eax],al
000030D8  1000              adc [eax],al
000030DA  0000              add [eax],al
000030DC  0900              or [eax],eax
000030DE  0000              add [eax],al
000030E0  0300              add eax,[eax]
000030E2  0000              add [eax],al
000030E4  0000              add [eax],al
000030E6  0000              add [eax],al
000030E8  0000              add [eax],al
000030EA  0000              add [eax],al
000030EC  48                dec eax
000030ED  2B00              sub eax,[eax]
000030EF  0039              add [ecx],bh
000030F1  0200              add al,[eax]
000030F3  0000              add [eax],al
000030F5  0000              add [eax],al
000030F7  0000              add [eax],al
000030F9  0000              add [eax],al
000030FB  0001              add [ecx],al
000030FD  0000              add [eax],al
000030FF  0000              add [eax],al
00003101  0000              add [eax],al
00003103  0011              add [ecx],dl
00003105  0000              add [eax],al
00003107  0003              add [ebx],al
00003109  0000              add [eax],al
0000310B  0000              add [eax],al
0000310D  0000              add [eax],al
0000310F  0000              add [eax],al
00003111  0000              add [eax],al
00003113  00812D000041      add [ecx+0x4100002d],al
00003119  0000              add [eax],al
0000311B  0000              add [eax],al
0000311D  0000              add [eax],al
0000311F  0000              add [eax],al
00003121  0000              add [eax],al
00003123  0001              add [ecx],al
00003125  0000              add [eax],al
00003127  0000              add [eax],al
00003129  0000              add [eax],al
0000312B  00                db 0x00
